Archive member included to satisfy reference by file (symbol)

d:/keil_v5/os/rtthread/env-windows-v1.3.5/tools/gnu_gcc/arm_gcc/mingw/bin/../lib/gcc/arm-none-eabi/10.3.1/../../../../arm-none-eabi/lib/thumb/v7e-m+fp/hard\libc.a(lib_a-atoi.o)
                              build\packages\dac7811\dac7811.o (atoi)
d:/keil_v5/os/rtthread/env-windows-v1.3.5/tools/gnu_gcc/arm_gcc/mingw/bin/../lib/gcc/arm-none-eabi/10.3.1/../../../../arm-none-eabi/lib/thumb/v7e-m+fp/hard\libc.a(lib_a-exit.o)
                              d:/keil_v5/os/rtthread/env-windows-v1.3.5/tools/gnu_gcc/arm_gcc/mingw/bin/../lib/gcc/arm-none-eabi/10.3.1/../../../../arm-none-eabi/lib/thumb/v7e-m+fp/hard/crt0.o (exit)
d:/keil_v5/os/rtthread/env-windows-v1.3.5/tools/gnu_gcc/arm_gcc/mingw/bin/../lib/gcc/arm-none-eabi/10.3.1/../../../../arm-none-eabi/lib/thumb/v7e-m+fp/hard\libc.a(lib_a-impure.o)
                              d:/keil_v5/os/rtthread/env-windows-v1.3.5/tools/gnu_gcc/arm_gcc/mingw/bin/../lib/gcc/arm-none-eabi/10.3.1/../../../../arm-none-eabi/lib/thumb/v7e-m+fp/hard\libc.a(lib_a-exit.o) (_global_impure_ptr)
d:/keil_v5/os/rtthread/env-windows-v1.3.5/tools/gnu_gcc/arm_gcc/mingw/bin/../lib/gcc/arm-none-eabi/10.3.1/../../../../arm-none-eabi/lib/thumb/v7e-m+fp/hard\libc.a(lib_a-memcmp.o)
                              build\kernel\components\finsh\shell.o (memcmp)
d:/keil_v5/os/rtthread/env-windows-v1.3.5/tools/gnu_gcc/arm_gcc/mingw/bin/../lib/gcc/arm-none-eabi/10.3.1/../../../../arm-none-eabi/lib/thumb/v7e-m+fp/hard\libc.a(lib_a-memset.o)
                              d:/keil_v5/os/rtthread/env-windows-v1.3.5/tools/gnu_gcc/arm_gcc/mingw/bin/../lib/gcc/arm-none-eabi/10.3.1/../../../../arm-none-eabi/lib/thumb/v7e-m+fp/hard/crt0.o (memset)
d:/keil_v5/os/rtthread/env-windows-v1.3.5/tools/gnu_gcc/arm_gcc/mingw/bin/../lib/gcc/arm-none-eabi/10.3.1/../../../../arm-none-eabi/lib/thumb/v7e-m+fp/hard\libc.a(lib_a-strcpy.o)
                              build\kernel\components\finsh\shell.o (strcpy)
d:/keil_v5/os/rtthread/env-windows-v1.3.5/tools/gnu_gcc/arm_gcc/mingw/bin/../lib/gcc/arm-none-eabi/10.3.1/../../../../arm-none-eabi/lib/thumb/v7e-m+fp/hard\libc.a(lib_a-strlen.o)
                              build\kernel\components\finsh\shell.o (strlen)
d:/keil_v5/os/rtthread/env-windows-v1.3.5/tools/gnu_gcc/arm_gcc/mingw/bin/../lib/gcc/arm-none-eabi/10.3.1/../../../../arm-none-eabi/lib/thumb/v7e-m+fp/hard\libc.a(lib_a-strncmp.o)
                              build\kernel\components\finsh\msh.o (strncmp)
d:/keil_v5/os/rtthread/env-windows-v1.3.5/tools/gnu_gcc/arm_gcc/mingw/bin/../lib/gcc/arm-none-eabi/10.3.1/../../../../arm-none-eabi/lib/thumb/v7e-m+fp/hard\libc.a(lib_a-strncpy.o)
                              build\kernel\components\finsh\shell.o (strncpy)
d:/keil_v5/os/rtthread/env-windows-v1.3.5/tools/gnu_gcc/arm_gcc/mingw/bin/../lib/gcc/arm-none-eabi/10.3.1/../../../../arm-none-eabi/lib/thumb/v7e-m+fp/hard\libc.a(lib_a-strtol.o)
                              d:/keil_v5/os/rtthread/env-windows-v1.3.5/tools/gnu_gcc/arm_gcc/mingw/bin/../lib/gcc/arm-none-eabi/10.3.1/../../../../arm-none-eabi/lib/thumb/v7e-m+fp/hard\libc.a(lib_a-atoi.o) (_strtol_r)
d:/keil_v5/os/rtthread/env-windows-v1.3.5/tools/gnu_gcc/arm_gcc/mingw/bin/../lib/gcc/arm-none-eabi/10.3.1/../../../../arm-none-eabi/lib/thumb/v7e-m+fp/hard\libc.a(lib_a-__call_atexit.o)
                              d:/keil_v5/os/rtthread/env-windows-v1.3.5/tools/gnu_gcc/arm_gcc/mingw/bin/../lib/gcc/arm-none-eabi/10.3.1/../../../../arm-none-eabi/lib/thumb/v7e-m+fp/hard\libc.a(lib_a-exit.o) (__call_exitprocs)
d:/keil_v5/os/rtthread/env-windows-v1.3.5/tools/gnu_gcc/arm_gcc/mingw/bin/../lib/gcc/arm-none-eabi/10.3.1/../../../../arm-none-eabi/lib/thumb/v7e-m+fp/hard\libc.a(lib_a-atexit.o)
                              d:/keil_v5/os/rtthread/env-windows-v1.3.5/tools/gnu_gcc/arm_gcc/mingw/bin/../lib/gcc/arm-none-eabi/10.3.1/../../../../arm-none-eabi/lib/thumb/v7e-m+fp/hard\libc.a(lib_a-__call_atexit.o) (atexit)
d:/keil_v5/os/rtthread/env-windows-v1.3.5/tools/gnu_gcc/arm_gcc/mingw/bin/../lib/gcc/arm-none-eabi/10.3.1/../../../../arm-none-eabi/lib/thumb/v7e-m+fp/hard\libc.a(lib_a-ctype_.o)
                              d:/keil_v5/os/rtthread/env-windows-v1.3.5/tools/gnu_gcc/arm_gcc/mingw/bin/../lib/gcc/arm-none-eabi/10.3.1/../../../../arm-none-eabi/lib/thumb/v7e-m+fp/hard\libc.a(lib_a-strtol.o) (_ctype_)
d:/keil_v5/os/rtthread/env-windows-v1.3.5/tools/gnu_gcc/arm_gcc/mingw/bin/../lib/gcc/arm-none-eabi/10.3.1/../../../../arm-none-eabi/lib/thumb/v7e-m+fp/hard\libc.a(lib_a-fini.o)
                              d:/keil_v5/os/rtthread/env-windows-v1.3.5/tools/gnu_gcc/arm_gcc/mingw/bin/../lib/gcc/arm-none-eabi/10.3.1/../../../../arm-none-eabi/lib/thumb/v7e-m+fp/hard\libc.a(lib_a-__call_atexit.o) (__libc_fini_array)
d:/keil_v5/os/rtthread/env-windows-v1.3.5/tools/gnu_gcc/arm_gcc/mingw/bin/../lib/gcc/arm-none-eabi/10.3.1/../../../../arm-none-eabi/lib/thumb/v7e-m+fp/hard\libc.a(lib_a-lock.o)
                              d:/keil_v5/os/rtthread/env-windows-v1.3.5/tools/gnu_gcc/arm_gcc/mingw/bin/../lib/gcc/arm-none-eabi/10.3.1/../../../../arm-none-eabi/lib/thumb/v7e-m+fp/hard\libc.a(lib_a-__call_atexit.o) (__retarget_lock_acquire_recursive)
d:/keil_v5/os/rtthread/env-windows-v1.3.5/tools/gnu_gcc/arm_gcc/mingw/bin/../lib/gcc/arm-none-eabi/10.3.1/../../../../arm-none-eabi/lib/thumb/v7e-m+fp/hard\libc.a(lib_a-__atexit.o)
                              d:/keil_v5/os/rtthread/env-windows-v1.3.5/tools/gnu_gcc/arm_gcc/mingw/bin/../lib/gcc/arm-none-eabi/10.3.1/../../../../arm-none-eabi/lib/thumb/v7e-m+fp/hard\libc.a(lib_a-atexit.o) (__register_exitproc)
d:/keil_v5/os/rtthread/env-windows-v1.3.5/tools/gnu_gcc/arm_gcc/mingw/bin/../lib/gcc/arm-none-eabi/10.3.1/thumb/v7e-m+fp/hard\libgcc.a(_arm_muldf3.o)
                              build\packages\ad983x\ad983x.o (__aeabi_dmul)
d:/keil_v5/os/rtthread/env-windows-v1.3.5/tools/gnu_gcc/arm_gcc/mingw/bin/../lib/gcc/arm-none-eabi/10.3.1/thumb/v7e-m+fp/hard\libgcc.a(_arm_muldivdf3.o)
                              build\packages\ad983x\ad983x.o (__aeabi_ddiv)
d:/keil_v5/os/rtthread/env-windows-v1.3.5/tools/gnu_gcc/arm_gcc/mingw/bin/../lib/gcc/arm-none-eabi/10.3.1/thumb/v7e-m+fp/hard\libgcc.a(_arm_fixunsdfsi.o)
                              build\packages\ad983x\ad983x.o (__aeabi_d2uiz)
d:/keil_v5/os/rtthread/env-windows-v1.3.5/tools/gnu_gcc/arm_gcc/mingw/bin/../lib/gcc/arm-none-eabi/10.3.1/thumb/v7e-m+fp/hard\libgcc.a(_aeabi_ldivmod.o)
                              build\kernel\components\libc\compilers\common\time.o (__aeabi_ldivmod)
d:/keil_v5/os/rtthread/env-windows-v1.3.5/tools/gnu_gcc/arm_gcc/mingw/bin/../lib/gcc/arm-none-eabi/10.3.1/thumb/v7e-m+fp/hard\libgcc.a(_udivmoddi4.o)
                              d:/keil_v5/os/rtthread/env-windows-v1.3.5/tools/gnu_gcc/arm_gcc/mingw/bin/../lib/gcc/arm-none-eabi/10.3.1/thumb/v7e-m+fp/hard\libgcc.a(_aeabi_ldivmod.o) (__udivmoddi4)
d:/keil_v5/os/rtthread/env-windows-v1.3.5/tools/gnu_gcc/arm_gcc/mingw/bin/../lib/gcc/arm-none-eabi/10.3.1/thumb/v7e-m+fp/hard\libgcc.a(_dvmd_tls.o)
                              d:/keil_v5/os/rtthread/env-windows-v1.3.5/tools/gnu_gcc/arm_gcc/mingw/bin/../lib/gcc/arm-none-eabi/10.3.1/thumb/v7e-m+fp/hard\libgcc.a(_aeabi_ldivmod.o) (__aeabi_ldiv0)

Discarded input sections

 .text          0x00000000        0x0 d:/keil_v5/os/rtthread/env-windows-v1.3.5/tools/gnu_gcc/arm_gcc/mingw/bin/../lib/gcc/arm-none-eabi/10.3.1/thumb/v7e-m+fp/hard/crti.o
 .data          0x00000000        0x0 d:/keil_v5/os/rtthread/env-windows-v1.3.5/tools/gnu_gcc/arm_gcc/mingw/bin/../lib/gcc/arm-none-eabi/10.3.1/thumb/v7e-m+fp/hard/crti.o
 .bss           0x00000000        0x0 d:/keil_v5/os/rtthread/env-windows-v1.3.5/tools/gnu_gcc/arm_gcc/mingw/bin/../lib/gcc/arm-none-eabi/10.3.1/thumb/v7e-m+fp/hard/crti.o
 .text          0x00000000       0x40 d:/keil_v5/os/rtthread/env-windows-v1.3.5/tools/gnu_gcc/arm_gcc/mingw/bin/../lib/gcc/arm-none-eabi/10.3.1/thumb/v7e-m+fp/hard/crtbegin.o
 .data          0x00000000        0x4 d:/keil_v5/os/rtthread/env-windows-v1.3.5/tools/gnu_gcc/arm_gcc/mingw/bin/../lib/gcc/arm-none-eabi/10.3.1/thumb/v7e-m+fp/hard/crtbegin.o
 .bss           0x00000000       0x1c d:/keil_v5/os/rtthread/env-windows-v1.3.5/tools/gnu_gcc/arm_gcc/mingw/bin/../lib/gcc/arm-none-eabi/10.3.1/thumb/v7e-m+fp/hard/crtbegin.o
 .rodata        0x00000000       0x24 d:/keil_v5/os/rtthread/env-windows-v1.3.5/tools/gnu_gcc/arm_gcc/mingw/bin/../lib/gcc/arm-none-eabi/10.3.1/thumb/v7e-m+fp/hard/crtbegin.o
 .init_array    0x00000000        0x4 d:/keil_v5/os/rtthread/env-windows-v1.3.5/tools/gnu_gcc/arm_gcc/mingw/bin/../lib/gcc/arm-none-eabi/10.3.1/thumb/v7e-m+fp/hard/crtbegin.o
 .fini_array    0x00000000        0x4 d:/keil_v5/os/rtthread/env-windows-v1.3.5/tools/gnu_gcc/arm_gcc/mingw/bin/../lib/gcc/arm-none-eabi/10.3.1/thumb/v7e-m+fp/hard/crtbegin.o
 .eh_frame      0x00000000        0x0 d:/keil_v5/os/rtthread/env-windows-v1.3.5/tools/gnu_gcc/arm_gcc/mingw/bin/../lib/gcc/arm-none-eabi/10.3.1/thumb/v7e-m+fp/hard/crtbegin.o
 .ARM.attributes
                0x00000000       0x34 d:/keil_v5/os/rtthread/env-windows-v1.3.5/tools/gnu_gcc/arm_gcc/mingw/bin/../lib/gcc/arm-none-eabi/10.3.1/thumb/v7e-m+fp/hard/crtbegin.o
 .text          0x00000000       0x7c d:/keil_v5/os/rtthread/env-windows-v1.3.5/tools/gnu_gcc/arm_gcc/mingw/bin/../lib/gcc/arm-none-eabi/10.3.1/../../../../arm-none-eabi/lib/thumb/v7e-m+fp/hard/crt0.o
 .data          0x00000000        0x0 d:/keil_v5/os/rtthread/env-windows-v1.3.5/tools/gnu_gcc/arm_gcc/mingw/bin/../lib/gcc/arm-none-eabi/10.3.1/../../../../arm-none-eabi/lib/thumb/v7e-m+fp/hard/crt0.o
 .bss           0x00000000        0x0 d:/keil_v5/os/rtthread/env-windows-v1.3.5/tools/gnu_gcc/arm_gcc/mingw/bin/../lib/gcc/arm-none-eabi/10.3.1/../../../../arm-none-eabi/lib/thumb/v7e-m+fp/hard/crt0.o
 .ARM.extab     0x00000000        0x0 d:/keil_v5/os/rtthread/env-windows-v1.3.5/tools/gnu_gcc/arm_gcc/mingw/bin/../lib/gcc/arm-none-eabi/10.3.1/../../../../arm-none-eabi/lib/thumb/v7e-m+fp/hard/crt0.o
 .ARM.exidx     0x00000000       0x10 d:/keil_v5/os/rtthread/env-windows-v1.3.5/tools/gnu_gcc/arm_gcc/mingw/bin/../lib/gcc/arm-none-eabi/10.3.1/../../../../arm-none-eabi/lib/thumb/v7e-m+fp/hard/crt0.o
 .ARM.attributes
                0x00000000       0x1c d:/keil_v5/os/rtthread/env-windows-v1.3.5/tools/gnu_gcc/arm_gcc/mingw/bin/../lib/gcc/arm-none-eabi/10.3.1/../../../../arm-none-eabi/lib/thumb/v7e-m+fp/hard/crt0.o
 .text          0x00000000        0x0 build\applications\rs232_link.o
 .data          0x00000000        0x0 build\applications\rs232_link.o
 .bss           0x00000000        0x0 build\applications\rs232_link.o
 .text.rs232_send_msg
                0x00000000       0x5c build\applications\rs232_link.o
 .rodata.__FUNCTION__.0
                0x00000000        0xf build\applications\rs232_link.o
 .text          0x00000000        0x0 build\applications\main.o
 .data          0x00000000        0x0 build\applications\main.o
 .bss           0x00000000        0x0 build\applications\main.o
 .text          0x00000000        0x0 libraries\GD32F30x_Firmware_Library\CMSIS\GD\GD32F30x\Source\GCC\startup_gd32f30x_hd.o
 .data          0x00000000        0x0 libraries\GD32F30x_Firmware_Library\CMSIS\GD\GD32F30x\Source\GCC\startup_gd32f30x_hd.o
 .bss           0x00000000        0x0 libraries\GD32F30x_Firmware_Library\CMSIS\GD\GD32F30x\Source\GCC\startup_gd32f30x_hd.o
 .text          0x00000000        0x0 build\board\board.o
 .data          0x00000000        0x0 build\board\board.o
 .bss           0x00000000        0x0 build\board\board.o
 .text.Error_Handler
                0x00000000        0x6 build\board\board.o
 .text          0x00000000        0x0 build\packages\ad7190\ad7190.o
 .data          0x00000000        0x0 build\packages\ad7190\ad7190.o
 .bss           0x00000000        0x0 build\packages\ad7190\ad7190.o
 .bss.k         0x00000000        0x4 build\packages\ad7190\ad7190.o
 .text.ad7190_verify
                0x00000000       0x4c build\packages\ad7190\ad7190.o
 .text.ad7190_read_channel
                0x00000000       0x34 build\packages\ad7190\ad7190.o
 .text.ad7190_pack
                0x00000000       0xd0 build\packages\ad7190\ad7190.o
 .data.cnt.0    0x00000000        0x4 build\packages\ad7190\ad7190.o
 .text          0x00000000        0x0 build\packages\ad983x\ad983x.o
 .data          0x00000000        0x0 build\packages\ad983x\ad983x.o
 .bss           0x00000000        0x0 build\packages\ad983x\ad983x.o
 .text.rad_2_reg
                0x00000000       0x54 build\packages\ad983x\ad983x.o
 .text          0x00000000        0x0 build\packages\cobs\cobs.o
 .data          0x00000000        0x0 build\packages\cobs\cobs.o
 .bss           0x00000000        0x0 build\packages\cobs\cobs.o
 .text          0x00000000        0x0 build\packages\dac7811\dac7811.o
 .data          0x00000000        0x0 build\packages\dac7811\dac7811.o
 .bss           0x00000000        0x0 build\packages\dac7811\dac7811.o
 .text          0x00000000        0x0 build\kernel\src\mem.o
 .data          0x00000000        0x0 build\kernel\src\mem.o
 .bss           0x00000000        0x0 build\kernel\src\mem.o
 .text.rt_smem_detach
                0x00000000       0x6c build\kernel\src\mem.o
 .text.rt_smem_realloc
                0x00000000      0x1d4 build\kernel\src\mem.o
 .rodata.__FUNCTION__.3
                0x00000000        0xf build\kernel\src\mem.o
 .rodata.__FUNCTION__.1
                0x00000000       0x10 build\kernel\src\mem.o
 .text          0x00000000        0x0 build\kernel\src\thread.o
 .data          0x00000000        0x0 build\kernel\src\thread.o
 .bss           0x00000000        0x0 build\kernel\src\thread.o
 .text.rt_thread_suspend_sethook
                0x00000000       0x20 build\kernel\src\thread.o
 .text.rt_thread_resume_sethook
                0x00000000       0x20 build\kernel\src\thread.o
 .text.rt_thread_inited_sethook
                0x00000000       0x20 build\kernel\src\thread.o
 .text.rt_thread_yield
                0x00000000       0x40 build\kernel\src\thread.o
 .text.rt_thread_delay
                0x00000000       0x18 build\kernel\src\thread.o
 .text.rt_thread_delay_until
                0x00000000       0xe8 build\kernel\src\thread.o
 .text.rt_thread_find
                0x00000000       0x1a build\kernel\src\thread.o
 .rodata.__FUNCTION__.3
                0x00000000       0x16 build\kernel\src\thread.o
 .text          0x00000000        0x0 build\kernel\src\object.o
 .data          0x00000000        0x0 build\kernel\src\object.o
 .bss           0x00000000        0x0 build\kernel\src\object.o
 .text.rt_object_attach_sethook
                0x00000000       0x20 build\kernel\src\object.o
 .text.rt_object_detach_sethook
                0x00000000       0x20 build\kernel\src\object.o
 .text.rt_object_trytake_sethook
                0x00000000       0x20 build\kernel\src\object.o
 .text.rt_object_take_sethook
                0x00000000       0x20 build\kernel\src\object.o
 .text.rt_object_put_sethook
                0x00000000       0x20 build\kernel\src\object.o
 .text.rt_object_get_length
                0x00000000       0x62 build\kernel\src\object.o
 .text.rt_object_get_pointers
                0x00000000       0x8e build\kernel\src\object.o
 .text          0x00000000        0x0 build\kernel\src\timer.o
 .data          0x00000000        0x0 build\kernel\src\timer.o
 .bss           0x00000000        0x0 build\kernel\src\timer.o
 .text.rt_timer_enter_sethook
                0x00000000       0x20 build\kernel\src\timer.o
 .text.rt_timer_exit_sethook
                0x00000000       0x20 build\kernel\src\timer.o
 .text._timer_list_next_timeout
                0x00000000       0x48 build\kernel\src\timer.o
 .text.rt_timer_create
                0x00000000       0x74 build\kernel\src\timer.o
 .text.rt_timer_delete
                0x00000000       0x90 build\kernel\src\timer.o
 .text.rt_timer_next_timeout_tick
                0x00000000       0x24 build\kernel\src\timer.o
 .rodata.__FUNCTION__.5
                0x00000000       0x10 build\kernel\src\timer.o
 .rodata.__FUNCTION__.4
                0x00000000       0x10 build\kernel\src\timer.o
 .text          0x00000000        0x0 build\kernel\src\idle.o
 .data          0x00000000        0x0 build\kernel\src\idle.o
 .bss           0x00000000        0x0 build\kernel\src\idle.o
 .text.rt_thread_idle_sethook
                0x00000000       0x58 build\kernel\src\idle.o
 .text.rt_thread_idle_delhook
                0x00000000       0x58 build\kernel\src\idle.o
 .text.rt_thread_idle_gethandler
                0x00000000       0x18 build\kernel\src\idle.o
 .text          0x00000000        0x0 build\kernel\src\components.o
 .data          0x00000000        0x0 build\kernel\src\components.o
 .bss           0x00000000        0x0 build\kernel\src\components.o
 .text          0x00000000        0x0 build\kernel\src\device.o
 .data          0x00000000        0x0 build\kernel\src\device.o
 .bss           0x00000000        0x0 build\kernel\src\device.o
 .text.rt_device_unregister
                0x00000000       0x6c build\kernel\src\device.o
 .text.rt_device_create
                0x00000000       0x4c build\kernel\src\device.o
 .text.rt_device_destroy
                0x00000000       0x70 build\kernel\src\device.o
 .text.rt_device_init
                0x00000000       0x60 build\kernel\src\device.o
 .rodata.__FUNCTION__.9
                0x00000000       0x15 build\kernel\src\device.o
 .rodata.__FUNCTION__.8
                0x00000000       0x12 build\kernel\src\device.o
 .rodata.__FUNCTION__.7
                0x00000000        0xf build\kernel\src\device.o
 .text          0x00000000        0x0 build\kernel\src\mempool.o
 .data          0x00000000        0x0 build\kernel\src\mempool.o
 .bss           0x00000000        0x0 build\kernel\src\mempool.o
 .text.rt_list_init
                0x00000000       0x22 build\kernel\src\mempool.o
 .text.rt_list_insert_after
                0x00000000       0x32 build\kernel\src\mempool.o
 .text.rt_list_isempty
                0x00000000       0x24 build\kernel\src\mempool.o
 .bss.rt_mp_alloc_hook
                0x00000000        0x4 build\kernel\src\mempool.o
 .bss.rt_mp_free_hook
                0x00000000        0x4 build\kernel\src\mempool.o
 .text.rt_mp_alloc_sethook
                0x00000000       0x20 build\kernel\src\mempool.o
 .text.rt_mp_free_sethook
                0x00000000       0x20 build\kernel\src\mempool.o
 .rodata        0x00000000      0x14d build\kernel\src\mempool.o
 .text.rt_mp_init
                0x00000000      0x10c build\kernel\src\mempool.o
 .text.rt_mp_detach
                0x00000000       0xa4 build\kernel\src\mempool.o
 .text.rt_mp_create
                0x00000000      0x134 build\kernel\src\mempool.o
 .text.rt_mp_delete
                0x00000000       0xe4 build\kernel\src\mempool.o
 .text.rt_mp_alloc
                0x00000000      0x168 build\kernel\src\mempool.o
 .text.rt_mp_free
                0x00000000       0x90 build\kernel\src\mempool.o
 .rodata.__FUNCTION__.4
                0x00000000        0xb build\kernel\src\mempool.o
 .rodata.__FUNCTION__.3
                0x00000000        0xd build\kernel\src\mempool.o
 .rodata.__FUNCTION__.2
                0x00000000        0xd build\kernel\src\mempool.o
 .rodata.__FUNCTION__.1
                0x00000000        0xd build\kernel\src\mempool.o
 .rodata.__FUNCTION__.0
                0x00000000        0xc build\kernel\src\mempool.o
 .debug_info    0x00000000      0x92e build\kernel\src\mempool.o
 .debug_abbrev  0x00000000      0x234 build\kernel\src\mempool.o
 .debug_loc     0x00000000      0x3ac build\kernel\src\mempool.o
 .debug_aranges
                0x00000000       0x70 build\kernel\src\mempool.o
 .debug_ranges  0x00000000       0x60 build\kernel\src\mempool.o
 .debug_line    0x00000000      0x49e build\kernel\src\mempool.o
 .debug_str     0x00000000      0x5ea build\kernel\src\mempool.o
 .comment       0x00000000       0x4a build\kernel\src\mempool.o
 .debug_frame   0x00000000      0x1c8 build\kernel\src\mempool.o
 .ARM.attributes
                0x00000000       0x34 build\kernel\src\mempool.o
 .text          0x00000000        0x0 build\kernel\src\scheduler.o
 .data          0x00000000        0x0 build\kernel\src\scheduler.o
 .bss           0x00000000        0x0 build\kernel\src\scheduler.o
 .text.rt_scheduler_sethook
                0x00000000       0x20 build\kernel\src\scheduler.o
 .text.rt_scheduler_switch_sethook
                0x00000000       0x20 build\kernel\src\scheduler.o
 .text          0x00000000        0x0 build\kernel\src\ipc.o
 .data          0x00000000        0x0 build\kernel\src\ipc.o
 .bss           0x00000000        0x0 build\kernel\src\ipc.o
 .text.rt_sem_detach
                0x00000000       0x7c build\kernel\src\ipc.o
 .text.rt_sem_create
                0x00000000       0xac build\kernel\src\ipc.o
 .text.rt_sem_delete
                0x00000000       0xac build\kernel\src\ipc.o
 .text.rt_mutex_detach
                0x00000000       0x7c build\kernel\src\ipc.o
 .text.rt_mutex_create
                0x00000000       0x88 build\kernel\src\ipc.o
 .text.rt_mutex_delete
                0x00000000       0xac build\kernel\src\ipc.o
 .text.rt_mutex_trytake
                0x00000000       0x1a build\kernel\src\ipc.o
 .text.rt_mutex_control
                0x00000000       0x50 build\kernel\src\ipc.o
 .text.rt_event_init
                0x00000000       0x70 build\kernel\src\ipc.o
 .text.rt_event_detach
                0x00000000       0x7c build\kernel\src\ipc.o
 .text.rt_event_create
                0x00000000       0x90 build\kernel\src\ipc.o
 .text.rt_event_delete
                0x00000000       0xac build\kernel\src\ipc.o
 .text.rt_event_send
                0x00000000      0x158 build\kernel\src\ipc.o
 .text.rt_event_recv
                0x00000000      0x24c build\kernel\src\ipc.o
 .text.rt_event_control
                0x00000000       0x80 build\kernel\src\ipc.o
 .text.rt_mb_init
                0x00000000       0x94 build\kernel\src\ipc.o
 .text.rt_mb_detach
                0x00000000       0x84 build\kernel\src\ipc.o
 .text.rt_mb_create
                0x00000000       0xd8 build\kernel\src\ipc.o
 .text.rt_mb_delete
                0x00000000       0xc0 build\kernel\src\ipc.o
 .text.rt_mb_send_wait
                0x00000000      0x258 build\kernel\src\ipc.o
 .text.rt_mb_send
                0x00000000       0x1e build\kernel\src\ipc.o
 .text.rt_mb_urgent
                0x00000000       0xf4 build\kernel\src\ipc.o
 .text.rt_mb_recv
                0x00000000      0x26c build\kernel\src\ipc.o
 .text.rt_mb_control
                0x00000000       0x94 build\kernel\src\ipc.o
 .text.rt_mq_detach
                0x00000000       0x84 build\kernel\src\ipc.o
 .text.rt_mq_create
                0x00000000      0x128 build\kernel\src\ipc.o
 .text.rt_mq_delete
                0x00000000       0xc0 build\kernel\src\ipc.o
 .text.rt_mq_send_wait
                0x00000000      0x2b8 build\kernel\src\ipc.o
 .text.rt_mq_send
                0x00000000       0x22 build\kernel\src\ipc.o
 .text.rt_mq_urgent
                0x00000000      0x160 build\kernel\src\ipc.o
 .text.rt_mq_control
                0x00000000       0xc0 build\kernel\src\ipc.o
 .rodata.__FUNCTION__.36
                0x00000000        0xe build\kernel\src\ipc.o
 .rodata.__FUNCTION__.35
                0x00000000        0xe build\kernel\src\ipc.o
 .rodata.__FUNCTION__.34
                0x00000000        0xe build\kernel\src\ipc.o
 .rodata.__FUNCTION__.28
                0x00000000       0x10 build\kernel\src\ipc.o
 .rodata.__FUNCTION__.27
                0x00000000       0x10 build\kernel\src\ipc.o
 .rodata.__FUNCTION__.26
                0x00000000       0x10 build\kernel\src\ipc.o
 .rodata.__FUNCTION__.23
                0x00000000       0x11 build\kernel\src\ipc.o
 .rodata.__FUNCTION__.22
                0x00000000        0xe build\kernel\src\ipc.o
 .rodata.__FUNCTION__.21
                0x00000000       0x10 build\kernel\src\ipc.o
 .rodata.__FUNCTION__.20
                0x00000000       0x10 build\kernel\src\ipc.o
 .rodata.__FUNCTION__.19
                0x00000000       0x10 build\kernel\src\ipc.o
 .rodata.__FUNCTION__.18
                0x00000000        0xe build\kernel\src\ipc.o
 .rodata.__FUNCTION__.17
                0x00000000        0xe build\kernel\src\ipc.o
 .rodata.__FUNCTION__.16
                0x00000000       0x11 build\kernel\src\ipc.o
 .rodata.__FUNCTION__.15
                0x00000000        0xb build\kernel\src\ipc.o
 .rodata.__FUNCTION__.14
                0x00000000        0xd build\kernel\src\ipc.o
 .rodata.__FUNCTION__.13
                0x00000000        0xd build\kernel\src\ipc.o
 .rodata.__FUNCTION__.12
                0x00000000        0xd build\kernel\src\ipc.o
 .rodata.__FUNCTION__.11
                0x00000000       0x10 build\kernel\src\ipc.o
 .rodata.__FUNCTION__.10
                0x00000000        0xd build\kernel\src\ipc.o
 .rodata.__FUNCTION__.9
                0x00000000        0xb build\kernel\src\ipc.o
 .rodata.__FUNCTION__.8
                0x00000000        0xe build\kernel\src\ipc.o
 .rodata.__FUNCTION__.6
                0x00000000        0xd build\kernel\src\ipc.o
 .rodata.__FUNCTION__.5
                0x00000000        0xd build\kernel\src\ipc.o
 .rodata.__FUNCTION__.4
                0x00000000        0xd build\kernel\src\ipc.o
 .rodata.__FUNCTION__.3
                0x00000000       0x10 build\kernel\src\ipc.o
 .rodata.__FUNCTION__.2
                0x00000000        0xd build\kernel\src\ipc.o
 .rodata.__FUNCTION__.0
                0x00000000        0xe build\kernel\src\ipc.o
 .text          0x00000000        0x0 build\kernel\src\clock.o
 .data          0x00000000        0x0 build\kernel\src\clock.o
 .bss           0x00000000        0x0 build\kernel\src\clock.o
 .text.rt_tick_sethook
                0x00000000       0x20 build\kernel\src\clock.o
 .text.rt_tick_set
                0x00000000       0x28 build\kernel\src\clock.o
 .text.rt_tick_get_millisecond
                0x00000000       0x16 build\kernel\src\clock.o
 .text          0x00000000        0x0 build\kernel\src\irq.o
 .data          0x00000000        0x0 build\kernel\src\irq.o
 .bss           0x00000000        0x0 build\kernel\src\irq.o
 .text.rt_interrupt_enter_sethook
                0x00000000       0x20 build\kernel\src\irq.o
 .text.rt_interrupt_leave_sethook
                0x00000000       0x20 build\kernel\src\irq.o
 .text          0x00000000        0x0 build\kernel\src\kservice.o
 .data          0x00000000        0x0 build\kernel\src\kservice.o
 .bss           0x00000000        0x0 build\kernel\src\kservice.o
 .text.rt_get_errno
                0x00000000       0x38 build\kernel\src\kservice.o
 .text.rt_memcmp
                0x00000000       0x58 build\kernel\src\kservice.o
 .text.rt_strstr
                0x00000000       0x5e build\kernel\src\kservice.o
 .text.rt_strcasecmp
                0x00000000       0x62 build\kernel\src\kservice.o
 .text.rt_strcpy
                0x00000000       0x40 build\kernel\src\kservice.o
 .text.rt_strcmp
                0x00000000       0x44 build\kernel\src\kservice.o
 .text.rt_strnlen
                0x00000000       0x3e build\kernel\src\kservice.o
 .text.rt_strdup
                0x00000000       0x3a build\kernel\src\kservice.o
 .text.rt_snprintf
                0x00000000       0x30 build\kernel\src\kservice.o
 .text.rt_malloc_sethook
                0x00000000       0x20 build\kernel\src\kservice.o
 .text.rt_free_sethook
                0x00000000       0x20 build\kernel\src\kservice.o
 .text.rt_realloc
                0x00000000       0x34 build\kernel\src\kservice.o
 .text.rt_malloc_align
                0x00000000       0x80 build\kernel\src\kservice.o
 .text.rt_free_align
                0x00000000       0x1e build\kernel\src\kservice.o
 .text.rt_assert_set_hook
                0x00000000       0x20 build\kernel\src\kservice.o
 .text          0x00000000        0x0 build\kernel\libcpu\arm\common\div0.o
 .data          0x00000000        0x0 build\kernel\libcpu\arm\common\div0.o
 .bss           0x00000000        0x0 build\kernel\libcpu\arm\common\div0.o
 .text.__div0   0x00000000        0x6 build\kernel\libcpu\arm\common\div0.o
 .debug_info    0x00000000       0x41 build\kernel\libcpu\arm\common\div0.o
 .debug_abbrev  0x00000000       0x30 build\kernel\libcpu\arm\common\div0.o
 .debug_loc     0x00000000       0x2c build\kernel\libcpu\arm\common\div0.o
 .debug_aranges
                0x00000000       0x20 build\kernel\libcpu\arm\common\div0.o
 .debug_ranges  0x00000000       0x10 build\kernel\libcpu\arm\common\div0.o
 .debug_line    0x00000000       0x5b build\kernel\libcpu\arm\common\div0.o
 .debug_str     0x00000000      0x104 build\kernel\libcpu\arm\common\div0.o
 .comment       0x00000000       0x4a build\kernel\libcpu\arm\common\div0.o
 .debug_frame   0x00000000       0x28 build\kernel\libcpu\arm\common\div0.o
 .ARM.attributes
                0x00000000       0x34 build\kernel\libcpu\arm\common\div0.o
 .text          0x00000000        0x0 build\kernel\libcpu\arm\common\showmem.o
 .data          0x00000000        0x0 build\kernel\libcpu\arm\common\showmem.o
 .bss           0x00000000        0x0 build\kernel\libcpu\arm\common\showmem.o
 .rodata        0x00000000       0x22 build\kernel\libcpu\arm\common\showmem.o
 .text.rt_hw_show_memory
                0x00000000       0x94 build\kernel\libcpu\arm\common\showmem.o
 .rodata.__FUNCTION__.0
                0x00000000       0x12 build\kernel\libcpu\arm\common\showmem.o
 .debug_info    0x00000000      0x101 build\kernel\libcpu\arm\common\showmem.o
 .debug_abbrev  0x00000000       0x9f build\kernel\libcpu\arm\common\showmem.o
 .debug_loc     0x00000000       0x50 build\kernel\libcpu\arm\common\showmem.o
 .debug_aranges
                0x00000000       0x20 build\kernel\libcpu\arm\common\showmem.o
 .debug_ranges  0x00000000       0x10 build\kernel\libcpu\arm\common\showmem.o
 .debug_line    0x00000000       0xd2 build\kernel\libcpu\arm\common\showmem.o
 .debug_str     0x00000000      0x1be build\kernel\libcpu\arm\common\showmem.o
 .comment       0x00000000       0x4a build\kernel\libcpu\arm\common\showmem.o
 .debug_frame   0x00000000       0x34 build\kernel\libcpu\arm\common\showmem.o
 .ARM.attributes
                0x00000000       0x34 build\kernel\libcpu\arm\common\showmem.o
 .text          0x00000000        0x0 build\kernel\libcpu\arm\common\backtrace.o
 .data          0x00000000        0x0 build\kernel\libcpu\arm\common\backtrace.o
 .bss           0x00000000        0x0 build\kernel\libcpu\arm\common\backtrace.o
 .rodata        0x00000000       0x19 build\kernel\libcpu\arm\common\backtrace.o
 .text.rt_hw_backtrace
                0x00000000       0x78 build\kernel\libcpu\arm\common\backtrace.o
 .debug_info    0x00000000       0xec build\kernel\libcpu\arm\common\backtrace.o
 .debug_abbrev  0x00000000       0xa4 build\kernel\libcpu\arm\common\backtrace.o
 .debug_loc     0x00000000       0x50 build\kernel\libcpu\arm\common\backtrace.o
 .debug_aranges
                0x00000000       0x20 build\kernel\libcpu\arm\common\backtrace.o
 .debug_ranges  0x00000000       0x10 build\kernel\libcpu\arm\common\backtrace.o
 .debug_line    0x00000000       0xbd build\kernel\libcpu\arm\common\backtrace.o
 .debug_str     0x00000000      0x1bf build\kernel\libcpu\arm\common\backtrace.o
 .comment       0x00000000       0x4a build\kernel\libcpu\arm\common\backtrace.o
 .debug_frame   0x00000000       0x34 build\kernel\libcpu\arm\common\backtrace.o
 .ARM.attributes
                0x00000000       0x34 build\kernel\libcpu\arm\common\backtrace.o
 .data          0x00000000        0x0 build\kernel\libcpu\arm\cortex-m4\context_gcc.o
 .bss           0x00000000        0x0 build\kernel\libcpu\arm\cortex-m4\context_gcc.o
 .text          0x00000000        0x0 build\kernel\libcpu\arm\cortex-m4\cpuport.o
 .data          0x00000000        0x0 build\kernel\libcpu\arm\cortex-m4\cpuport.o
 .bss           0x00000000        0x0 build\kernel\libcpu\arm\cortex-m4\cpuport.o
 .text.rt_hw_exception_install
                0x00000000       0x20 build\kernel\libcpu\arm\cortex-m4\cpuport.o
 .text.rt_hw_cpu_shutdown
                0x00000000       0x28 build\kernel\libcpu\arm\cortex-m4\cpuport.o
 .text.rt_hw_cpu_reset
                0x00000000       0x1c build\kernel\libcpu\arm\cortex-m4\cpuport.o
 .rodata.__FUNCTION__.0
                0x00000000       0x13 build\kernel\libcpu\arm\cortex-m4\cpuport.o
 .text          0x00000000        0x0 build\kernel\components\finsh\shell.o
 .data          0x00000000        0x0 build\kernel\components\finsh\shell.o
 .bss           0x00000000        0x0 build\kernel\components\finsh\shell.o
 .text.finsh_set_prompt
                0x00000000       0x60 build\kernel\components\finsh\shell.o
 .text.finsh_get_prompt_mode
                0x00000000       0x34 build\kernel\components\finsh\shell.o
 .text.finsh_get_device
                0x00000000       0x30 build\kernel\components\finsh\shell.o
 .text.finsh_set_echo
                0x00000000       0x48 build\kernel\components\finsh\shell.o
 .text.finsh_get_echo
                0x00000000       0x38 build\kernel\components\finsh\shell.o
 .rodata.__FUNCTION__.7
                0x00000000       0x16 build\kernel\components\finsh\shell.o
 .rodata.__FUNCTION__.2
                0x00000000       0x11 build\kernel\components\finsh\shell.o
 .rodata.__FUNCTION__.1
                0x00000000        0xf build\kernel\components\finsh\shell.o
 .rodata.__FUNCTION__.0
                0x00000000        0xf build\kernel\components\finsh\shell.o
 .text          0x00000000        0x0 build\kernel\components\finsh\msh.o
 .data          0x00000000        0x0 build\kernel\components\finsh\msh.o
 .bss           0x00000000        0x0 build\kernel\components\finsh\msh.o
 .text          0x00000000        0x0 build\kernel\components\finsh\cmd.o
 .data          0x00000000        0x0 build\kernel\components\finsh\cmd.o
 .bss           0x00000000        0x0 build\kernel\components\finsh\cmd.o
 .text          0x00000000        0x0 build\kernel\components\libc\compilers\common\stdlib.o
 .data          0x00000000        0x0 build\kernel\components\libc\compilers\common\stdlib.o
 .bss           0x00000000        0x0 build\kernel\components\libc\compilers\common\stdlib.o
 .rodata        0x00000000       0x1b build\kernel\components\libc\compilers\common\stdlib.o
 .text.__rt_libc_exit
                0x00000000       0x44 build\kernel\components\libc\compilers\common\stdlib.o
 .text.system   0x00000000       0x3e build\kernel\components\libc\compilers\common\stdlib.o
 .debug_info    0x00000000      0x434 build\kernel\components\libc\compilers\common\stdlib.o
 .debug_abbrev  0x00000000      0x138 build\kernel\components\libc\compilers\common\stdlib.o
 .debug_loc     0x00000000       0xa0 build\kernel\components\libc\compilers\common\stdlib.o
 .debug_aranges
                0x00000000       0x28 build\kernel\components\libc\compilers\common\stdlib.o
 .debug_ranges  0x00000000       0x18 build\kernel\components\libc\compilers\common\stdlib.o
 .debug_line    0x00000000       0xb5 build\kernel\components\libc\compilers\common\stdlib.o
 .debug_str     0x00000000      0x339 build\kernel\components\libc\compilers\common\stdlib.o
 .comment       0x00000000       0x4a build\kernel\components\libc\compilers\common\stdlib.o
 .debug_frame   0x00000000       0x58 build\kernel\components\libc\compilers\common\stdlib.o
 .ARM.attributes
                0x00000000       0x34 build\kernel\components\libc\compilers\common\stdlib.o
 .text          0x00000000        0x0 build\kernel\components\libc\compilers\common\time.o
 .data          0x00000000        0x0 build\kernel\components\libc\compilers\common\time.o
 .bss           0x00000000        0x0 build\kernel\components\libc\compilers\common\time.o
 .rodata.__spm  0x00000000       0x1a build\kernel\components\libc\compilers\common\time.o
 .rodata        0x00000000       0xbd build\kernel\components\libc\compilers\common\time.o
 .data.days     0x00000000        0x4 build\kernel\components\libc\compilers\common\time.o
 .data.months   0x00000000        0x4 build\kernel\components\libc\compilers\common\time.o
 .text.__isleap
                0x00000000       0x60 build\kernel\components\libc\compilers\common\time.o
 .text.num2str  0x00000000       0x58 build\kernel\components\libc\compilers\common\time.o
 .text.get_timeval
                0x00000000       0x28 build\kernel\components\libc\compilers\common\time.o
 .text.set_timeval
                0x00000000       0x28 build\kernel\components\libc\compilers\common\time.o
 .text.gmtime_r
                0x00000000      0x1e4 build\kernel\components\libc\compilers\common\time.o
 .text.gmtime   0x00000000       0x20 build\kernel\components\libc\compilers\common\time.o
 .text.localtime_r
                0x00000000       0xae build\kernel\components\libc\compilers\common\time.o
 .text.localtime
                0x00000000       0x20 build\kernel\components\libc\compilers\common\time.o
 .text.mktime   0x00000000       0x9c build\kernel\components\libc\compilers\common\time.o
 .text.asctime_r
                0x00000000      0x218 build\kernel\components\libc\compilers\common\time.o
 .text.asctime  0x00000000       0x20 build\kernel\components\libc\compilers\common\time.o
 .text.ctime_r  0x00000000       0x2a build\kernel\components\libc\compilers\common\time.o
 .text.ctime    0x00000000       0x20 build\kernel\components\libc\compilers\common\time.o
 .text.time     0x00000000       0x46 build\kernel\components\libc\compilers\common\time.o
 .text.clock    0x00000000        0xe build\kernel\components\libc\compilers\common\time.o
 .text.stime    0x00000000       0x4a build\kernel\components\libc\compilers\common\time.o
 .text.timegm   0x00000000      0x52c build\kernel\components\libc\compilers\common\time.o
 .text.gettimeofday
                0x00000000       0x54 build\kernel\components\libc\compilers\common\time.o
 .text.settimeofday
                0x00000000       0x3a build\kernel\components\libc\compilers\common\time.o
 .data._current_timezone
                0x00000000        0x1 build\kernel\components\libc\compilers\common\time.o
 .text.tz_set   0x00000000       0x28 build\kernel\components\libc\compilers\common\time.o
 .text.tz_get   0x00000000       0x18 build\kernel\components\libc\compilers\common\time.o
 .text.tz_is_dst
                0x00000000       0x10 build\kernel\components\libc\compilers\common\time.o
 .bss.tmp.2     0x00000000       0x24 build\kernel\components\libc\compilers\common\time.o
 .bss.tmp.1     0x00000000       0x24 build\kernel\components\libc\compilers\common\time.o
 .bss.buf.0     0x00000000       0x1a build\kernel\components\libc\compilers\common\time.o
 .debug_info    0x00000000      0x7c8 build\kernel\components\libc\compilers\common\time.o
 .debug_abbrev  0x00000000      0x21a build\kernel\components\libc\compilers\common\time.o
 .debug_loc     0x00000000      0x6c2 build\kernel\components\libc\compilers\common\time.o
 .debug_aranges
                0x00000000       0xc8 build\kernel\components\libc\compilers\common\time.o
 .debug_ranges  0x00000000       0xd0 build\kernel\components\libc\compilers\common\time.o
 .debug_line    0x00000000      0x808 build\kernel\components\libc\compilers\common\time.o
 .debug_str     0x00000000      0x3a5 build\kernel\components\libc\compilers\common\time.o
 .comment       0x00000000       0x4a build\kernel\components\libc\compilers\common\time.o
 .debug_frame   0x00000000      0x358 build\kernel\components\libc\compilers\common\time.o
 .ARM.attributes
                0x00000000       0x34 build\kernel\components\libc\compilers\common\time.o
 .text          0x00000000        0x0 build\kernel\components\libc\compilers\newlib\syscalls.o
 .data          0x00000000        0x0 build\kernel\components\libc\compilers\newlib\syscalls.o
 .bss           0x00000000        0x0 build\kernel\components\libc\compilers\newlib\syscalls.o
 .text._malloc_r
                0x00000000       0x28 build\kernel\components\libc\compilers\newlib\syscalls.o
 .text._realloc_r
                0x00000000       0x2c build\kernel\components\libc\compilers\newlib\syscalls.o
 .text._calloc_r
                0x00000000       0x2c build\kernel\components\libc\compilers\newlib\syscalls.o
 .text._free_r  0x00000000       0x18 build\kernel\components\libc\compilers\newlib\syscalls.o
 .text.__libc_init_array
                0x00000000        0xe build\kernel\components\libc\compilers\newlib\syscalls.o
 .text._getpid_r
                0x00000000       0x16 build\kernel\components\libc\compilers\newlib\syscalls.o
 .rodata        0x00000000       0x38 build\kernel\components\libc\compilers\newlib\syscalls.o
 .text._close_r
                0x00000000       0x40 build\kernel\components\libc\compilers\newlib\syscalls.o
 .text._execve_r
                0x00000000       0x24 build\kernel\components\libc\compilers\newlib\syscalls.o
 .text._fcntl_r
                0x00000000       0x24 build\kernel\components\libc\compilers\newlib\syscalls.o
 .text._fork_r  0x00000000       0x1e build\kernel\components\libc\compilers\newlib\syscalls.o
 .text._fstat_r
                0x00000000       0x22 build\kernel\components\libc\compilers\newlib\syscalls.o
 .text._isatty_r
                0x00000000       0x28 build\kernel\components\libc\compilers\newlib\syscalls.o
 .text._kill_r  0x00000000       0x22 build\kernel\components\libc\compilers\newlib\syscalls.o
 .text._link_r  0x00000000       0x22 build\kernel\components\libc\compilers\newlib\syscalls.o
 .text._wait_r  0x00000000       0x20 build\kernel\components\libc\compilers\newlib\syscalls.o
 .text.umask    0x00000000       0x16 build\kernel\components\libc\compilers\newlib\syscalls.o
 .text.flock    0x00000000       0x18 build\kernel\components\libc\compilers\newlib\syscalls.o
 .text._lseek_r
                0x00000000       0x44 build\kernel\components\libc\compilers\newlib\syscalls.o
 .text._mkdir_r
                0x00000000       0x44 build\kernel\components\libc\compilers\newlib\syscalls.o
 .text._open_r  0x00000000       0x44 build\kernel\components\libc\compilers\newlib\syscalls.o
 .text._read_r  0x00000000       0x44 build\kernel\components\libc\compilers\newlib\syscalls.o
 .text._rename_r
                0x00000000       0x44 build\kernel\components\libc\compilers\newlib\syscalls.o
 .text._stat_r  0x00000000       0x44 build\kernel\components\libc\compilers\newlib\syscalls.o
 .text._unlink_r
                0x00000000       0x40 build\kernel\components\libc\compilers\newlib\syscalls.o
 .text._write_r
                0x00000000       0x84 build\kernel\components\libc\compilers\newlib\syscalls.o
 .text._exit    0x00000000       0x10 build\kernel\components\libc\compilers\newlib\syscalls.o
 .rodata.__func__.8
                0x00000000        0x9 build\kernel\components\libc\compilers\newlib\syscalls.o
 .rodata.__func__.7
                0x00000000        0x9 build\kernel\components\libc\compilers\newlib\syscalls.o
 .rodata.__func__.6
                0x00000000        0x9 build\kernel\components\libc\compilers\newlib\syscalls.o
 .rodata.__func__.5
                0x00000000        0x8 build\kernel\components\libc\compilers\newlib\syscalls.o
 .rodata.__func__.4
                0x00000000        0x8 build\kernel\components\libc\compilers\newlib\syscalls.o
 .rodata.__func__.3
                0x00000000        0xa build\kernel\components\libc\compilers\newlib\syscalls.o
 .rodata.__func__.2
                0x00000000        0x8 build\kernel\components\libc\compilers\newlib\syscalls.o
 .rodata.__func__.1
                0x00000000        0xa build\kernel\components\libc\compilers\newlib\syscalls.o
 .rodata.__func__.0
                0x00000000        0x9 build\kernel\components\libc\compilers\newlib\syscalls.o
 .text          0x00000000        0x0 build\kernel\components\utilities\ulog\ulog.o
 .data          0x00000000        0x0 build\kernel\components\utilities\ulog\ulog.o
 .bss           0x00000000        0x0 build\kernel\components\utilities\ulog\ulog.o
 .text.rt_slist_remove
                0x00000000       0x48 build\kernel\components\utilities\ulog\ulog.o
 .text.ulog_output_lock_enabled
                0x00000000       0x20 build\kernel\components\utilities\ulog\ulog.o
 .text.ulog_raw
                0x00000000       0x88 build\kernel\components\utilities\ulog\ulog.o
 .text.ulog_hexdump
                0x00000000      0x304 build\kernel\components\utilities\ulog\ulog.o
 .text.ulog_backend_unregister
                0x00000000       0x74 build\kernel\components\utilities\ulog\ulog.o
 .text.ulog_backend_set_filter
                0x00000000       0x40 build\kernel\components\utilities\ulog\ulog.o
 .text.ulog_backend_find
                0x00000000       0x7c build\kernel\components\utilities\ulog\ulog.o
 .text.ulog_flush
                0x00000000       0x50 build\kernel\components\utilities\ulog\ulog.o
 .text.ulog_deinit
                0x00000000       0x60 build\kernel\components\utilities\ulog\ulog.o
 .rodata.__FUNCTION__.6
                0x00000000        0x9 build\kernel\components\utilities\ulog\ulog.o
 .rodata.__FUNCTION__.5
                0x00000000        0xd build\kernel\components\utilities\ulog\ulog.o
 .bss.tick_len.4
                0x00000000        0x4 build\kernel\components\utilities\ulog\ulog.o
 .rodata.__FUNCTION__.2
                0x00000000       0x18 build\kernel\components\utilities\ulog\ulog.o
 .rodata.__FUNCTION__.1
                0x00000000       0x18 build\kernel\components\utilities\ulog\ulog.o
 .rodata.__FUNCTION__.0
                0x00000000       0x12 build\kernel\components\utilities\ulog\ulog.o
 .text          0x00000000        0x0 build\kernel\components\utilities\ulog\backend\console_be.o
 .data          0x00000000        0x0 build\kernel\components\utilities\ulog\backend\console_be.o
 .bss           0x00000000        0x0 build\kernel\components\utilities\ulog\backend\console_be.o
 .text          0x00000000        0x0 libraries\GD32F30x_Firmware_Library\CMSIS\GD\GD32F30x\Source\system_gd32f30x.o
 .data          0x00000000        0x0 libraries\GD32F30x_Firmware_Library\CMSIS\GD\GD32F30x\Source\system_gd32f30x.o
 .bss           0x00000000        0x0 libraries\GD32F30x_Firmware_Library\CMSIS\GD\GD32F30x\Source\system_gd32f30x.o
 .rodata        0x00000000       0x10 libraries\GD32F30x_Firmware_Library\CMSIS\GD\GD32F30x\Source\system_gd32f30x.o
 .text.SystemCoreClockUpdate
                0x00000000      0x140 libraries\GD32F30x_Firmware_Library\CMSIS\GD\GD32F30x\Source\system_gd32f30x.o
 .text          0x00000000        0x0 libraries\GD32F30x_Firmware_Library\GD32F30x_standard_peripheral\Source\gd32f30x_rcu.o
 .data          0x00000000        0x0 libraries\GD32F30x_Firmware_Library\GD32F30x_standard_peripheral\Source\gd32f30x_rcu.o
 .bss           0x00000000        0x0 libraries\GD32F30x_Firmware_Library\GD32F30x_standard_peripheral\Source\gd32f30x_rcu.o
 .text.rcu_deinit
                0x00000000       0x6c libraries\GD32F30x_Firmware_Library\GD32F30x_standard_peripheral\Source\gd32f30x_rcu.o
 .text.rcu_periph_clock_disable
                0x00000000       0x4a libraries\GD32F30x_Firmware_Library\GD32F30x_standard_peripheral\Source\gd32f30x_rcu.o
 .text.rcu_periph_clock_sleep_enable
                0x00000000       0x46 libraries\GD32F30x_Firmware_Library\GD32F30x_standard_peripheral\Source\gd32f30x_rcu.o
 .text.rcu_periph_clock_sleep_disable
                0x00000000       0x4a libraries\GD32F30x_Firmware_Library\GD32F30x_standard_peripheral\Source\gd32f30x_rcu.o
 .text.rcu_periph_reset_enable
                0x00000000       0x46 libraries\GD32F30x_Firmware_Library\GD32F30x_standard_peripheral\Source\gd32f30x_rcu.o
 .text.rcu_periph_reset_disable
                0x00000000       0x4a libraries\GD32F30x_Firmware_Library\GD32F30x_standard_peripheral\Source\gd32f30x_rcu.o
 .text.rcu_bkp_reset_enable
                0x00000000       0x20 libraries\GD32F30x_Firmware_Library\GD32F30x_standard_peripheral\Source\gd32f30x_rcu.o
 .text.rcu_bkp_reset_disable
                0x00000000       0x20 libraries\GD32F30x_Firmware_Library\GD32F30x_standard_peripheral\Source\gd32f30x_rcu.o
 .text.rcu_system_clock_source_config
                0x00000000       0x30 libraries\GD32F30x_Firmware_Library\GD32F30x_standard_peripheral\Source\gd32f30x_rcu.o
 .text.rcu_system_clock_source_get
                0x00000000       0x1c libraries\GD32F30x_Firmware_Library\GD32F30x_standard_peripheral\Source\gd32f30x_rcu.o
 .text.rcu_ahb_clock_config
                0x00000000       0x30 libraries\GD32F30x_Firmware_Library\GD32F30x_standard_peripheral\Source\gd32f30x_rcu.o
 .text.rcu_apb1_clock_config
                0x00000000       0x30 libraries\GD32F30x_Firmware_Library\GD32F30x_standard_peripheral\Source\gd32f30x_rcu.o
 .text.rcu_apb2_clock_config
                0x00000000       0x30 libraries\GD32F30x_Firmware_Library\GD32F30x_standard_peripheral\Source\gd32f30x_rcu.o
 .text.rcu_ckout0_config
                0x00000000       0x30 libraries\GD32F30x_Firmware_Library\GD32F30x_standard_peripheral\Source\gd32f30x_rcu.o
 .text.rcu_pll_config
                0x00000000       0x44 libraries\GD32F30x_Firmware_Library\GD32F30x_standard_peripheral\Source\gd32f30x_rcu.o
 .text.rcu_pllpresel_config
                0x00000000       0x38 libraries\GD32F30x_Firmware_Library\GD32F30x_standard_peripheral\Source\gd32f30x_rcu.o
 .text.rcu_predv0_config
                0x00000000       0x40 libraries\GD32F30x_Firmware_Library\GD32F30x_standard_peripheral\Source\gd32f30x_rcu.o
 .text.rcu_adc_clock_config
                0x00000000       0xc8 libraries\GD32F30x_Firmware_Library\GD32F30x_standard_peripheral\Source\gd32f30x_rcu.o
 .text.rcu_usb_clock_config
                0x00000000       0x30 libraries\GD32F30x_Firmware_Library\GD32F30x_standard_peripheral\Source\gd32f30x_rcu.o
 .text.rcu_rtc_clock_config
                0x00000000       0x30 libraries\GD32F30x_Firmware_Library\GD32F30x_standard_peripheral\Source\gd32f30x_rcu.o
 .text.rcu_ck48m_clock_config
                0x00000000       0x30 libraries\GD32F30x_Firmware_Library\GD32F30x_standard_peripheral\Source\gd32f30x_rcu.o
 .text.rcu_flag_get
                0x00000000       0x3e libraries\GD32F30x_Firmware_Library\GD32F30x_standard_peripheral\Source\gd32f30x_rcu.o
 .text.rcu_all_reset_flag_clear
                0x00000000       0x20 libraries\GD32F30x_Firmware_Library\GD32F30x_standard_peripheral\Source\gd32f30x_rcu.o
 .text.rcu_interrupt_flag_get
                0x00000000       0x3e libraries\GD32F30x_Firmware_Library\GD32F30x_standard_peripheral\Source\gd32f30x_rcu.o
 .text.rcu_interrupt_flag_clear
                0x00000000       0x46 libraries\GD32F30x_Firmware_Library\GD32F30x_standard_peripheral\Source\gd32f30x_rcu.o
 .text.rcu_interrupt_enable
                0x00000000       0x46 libraries\GD32F30x_Firmware_Library\GD32F30x_standard_peripheral\Source\gd32f30x_rcu.o
 .text.rcu_interrupt_disable
                0x00000000       0x4a libraries\GD32F30x_Firmware_Library\GD32F30x_standard_peripheral\Source\gd32f30x_rcu.o
 .text.rcu_lxtal_drive_capability_config
                0x00000000       0x30 libraries\GD32F30x_Firmware_Library\GD32F30x_standard_peripheral\Source\gd32f30x_rcu.o
 .text.rcu_osci_stab_wait
                0x00000000      0x1bc libraries\GD32F30x_Firmware_Library\GD32F30x_standard_peripheral\Source\gd32f30x_rcu.o
 .text.rcu_osci_on
                0x00000000       0x46 libraries\GD32F30x_Firmware_Library\GD32F30x_standard_peripheral\Source\gd32f30x_rcu.o
 .text.rcu_osci_off
                0x00000000       0x4a libraries\GD32F30x_Firmware_Library\GD32F30x_standard_peripheral\Source\gd32f30x_rcu.o
 .text.rcu_osci_bypass_mode_enable
                0x00000000       0x9c libraries\GD32F30x_Firmware_Library\GD32F30x_standard_peripheral\Source\gd32f30x_rcu.o
 .text.rcu_osci_bypass_mode_disable
                0x00000000       0x9c libraries\GD32F30x_Firmware_Library\GD32F30x_standard_peripheral\Source\gd32f30x_rcu.o
 .text.rcu_hxtal_clock_monitor_enable
                0x00000000       0x20 libraries\GD32F30x_Firmware_Library\GD32F30x_standard_peripheral\Source\gd32f30x_rcu.o
 .text.rcu_hxtal_clock_monitor_disable
                0x00000000       0x20 libraries\GD32F30x_Firmware_Library\GD32F30x_standard_peripheral\Source\gd32f30x_rcu.o
 .text.rcu_irc8m_adjust_value_set
                0x00000000       0x34 libraries\GD32F30x_Firmware_Library\GD32F30x_standard_peripheral\Source\gd32f30x_rcu.o
 .text.rcu_deepsleep_voltage_set
                0x00000000       0x28 libraries\GD32F30x_Firmware_Library\GD32F30x_standard_peripheral\Source\gd32f30x_rcu.o
 .text          0x00000000        0x0 libraries\GD32F30x_Firmware_Library\GD32F30x_standard_peripheral\Source\gd32f30x_dma.o
 .data          0x00000000        0x0 libraries\GD32F30x_Firmware_Library\GD32F30x_standard_peripheral\Source\gd32f30x_dma.o
 .bss           0x00000000        0x0 libraries\GD32F30x_Firmware_Library\GD32F30x_standard_peripheral\Source\gd32f30x_dma.o
 .text.dma_memory_to_memory_enable
                0x00000000       0x54 libraries\GD32F30x_Firmware_Library\GD32F30x_standard_peripheral\Source\gd32f30x_dma.o
 .text.dma_periph_address_config
                0x00000000       0x40 libraries\GD32F30x_Firmware_Library\GD32F30x_standard_peripheral\Source\gd32f30x_dma.o
 .text.dma_priority_config
                0x00000000       0x66 libraries\GD32F30x_Firmware_Library\GD32F30x_standard_peripheral\Source\gd32f30x_dma.o
 .text.dma_memory_width_config
                0x00000000       0x66 libraries\GD32F30x_Firmware_Library\GD32F30x_standard_peripheral\Source\gd32f30x_dma.o
 .text.dma_periph_width_config
                0x00000000       0x66 libraries\GD32F30x_Firmware_Library\GD32F30x_standard_peripheral\Source\gd32f30x_dma.o
 .text.dma_memory_increase_enable
                0x00000000       0x54 libraries\GD32F30x_Firmware_Library\GD32F30x_standard_peripheral\Source\gd32f30x_dma.o
 .text.dma_memory_increase_disable
                0x00000000       0x54 libraries\GD32F30x_Firmware_Library\GD32F30x_standard_peripheral\Source\gd32f30x_dma.o
 .text.dma_periph_increase_enable
                0x00000000       0x54 libraries\GD32F30x_Firmware_Library\GD32F30x_standard_peripheral\Source\gd32f30x_dma.o
 .text.dma_periph_increase_disable
                0x00000000       0x54 libraries\GD32F30x_Firmware_Library\GD32F30x_standard_peripheral\Source\gd32f30x_dma.o
 .text.dma_transfer_direction_config
                0x00000000       0x8c libraries\GD32F30x_Firmware_Library\GD32F30x_standard_peripheral\Source\gd32f30x_dma.o
 .text.dma_flag_get
                0x00000000       0x3a libraries\GD32F30x_Firmware_Library\GD32F30x_standard_peripheral\Source\gd32f30x_dma.o
 .text.dma_flag_clear
                0x00000000       0x32 libraries\GD32F30x_Firmware_Library\GD32F30x_standard_peripheral\Source\gd32f30x_dma.o
 .text.dma_interrupt_disable
                0x00000000       0x5a libraries\GD32F30x_Firmware_Library\GD32F30x_standard_peripheral\Source\gd32f30x_dma.o
 .text          0x00000000        0x0 libraries\GD32F30x_Firmware_Library\GD32F30x_standard_peripheral\Source\gd32f30x_usart.o
 .data          0x00000000        0x0 libraries\GD32F30x_Firmware_Library\GD32F30x_standard_peripheral\Source\gd32f30x_usart.o
 .bss           0x00000000        0x0 libraries\GD32F30x_Firmware_Library\GD32F30x_standard_peripheral\Source\gd32f30x_usart.o
 .text.usart_deinit
                0x00000000       0xc4 libraries\GD32F30x_Firmware_Library\GD32F30x_standard_peripheral\Source\gd32f30x_usart.o
 .text.usart_disable
                0x00000000       0x24 libraries\GD32F30x_Firmware_Library\GD32F30x_standard_peripheral\Source\gd32f30x_usart.o
 .text.usart_data_first_config
                0x00000000       0x38 libraries\GD32F30x_Firmware_Library\GD32F30x_standard_peripheral\Source\gd32f30x_usart.o
 .text.usart_invert_config
                0x00000000       0xac libraries\GD32F30x_Firmware_Library\GD32F30x_standard_peripheral\Source\gd32f30x_usart.o
 .text.usart_receiver_timeout_enable
                0x00000000       0x24 libraries\GD32F30x_Firmware_Library\GD32F30x_standard_peripheral\Source\gd32f30x_usart.o
 .text.usart_receiver_timeout_disable
                0x00000000       0x24 libraries\GD32F30x_Firmware_Library\GD32F30x_standard_peripheral\Source\gd32f30x_usart.o
 .text.usart_receiver_timeout_threshold_config
                0x00000000       0x38 libraries\GD32F30x_Firmware_Library\GD32F30x_standard_peripheral\Source\gd32f30x_usart.o
 .text.usart_address_config
                0x00000000       0x3c libraries\GD32F30x_Firmware_Library\GD32F30x_standard_peripheral\Source\gd32f30x_usart.o
 .text.usart_mute_mode_enable
                0x00000000       0x24 libraries\GD32F30x_Firmware_Library\GD32F30x_standard_peripheral\Source\gd32f30x_usart.o
 .text.usart_mute_mode_disable
                0x00000000       0x24 libraries\GD32F30x_Firmware_Library\GD32F30x_standard_peripheral\Source\gd32f30x_usart.o
 .text.usart_mute_mode_wakeup_config
                0x00000000       0x38 libraries\GD32F30x_Firmware_Library\GD32F30x_standard_peripheral\Source\gd32f30x_usart.o
 .text.usart_lin_mode_enable
                0x00000000       0x24 libraries\GD32F30x_Firmware_Library\GD32F30x_standard_peripheral\Source\gd32f30x_usart.o
 .text.usart_lin_mode_disable
                0x00000000       0x24 libraries\GD32F30x_Firmware_Library\GD32F30x_standard_peripheral\Source\gd32f30x_usart.o
 .text.usart_lin_break_detection_length_config
                0x00000000       0x3a libraries\GD32F30x_Firmware_Library\GD32F30x_standard_peripheral\Source\gd32f30x_usart.o
 .text.usart_send_break
                0x00000000       0x24 libraries\GD32F30x_Firmware_Library\GD32F30x_standard_peripheral\Source\gd32f30x_usart.o
 .text.usart_halfduplex_enable
                0x00000000       0x24 libraries\GD32F30x_Firmware_Library\GD32F30x_standard_peripheral\Source\gd32f30x_usart.o
 .text.usart_halfduplex_disable
                0x00000000       0x24 libraries\GD32F30x_Firmware_Library\GD32F30x_standard_peripheral\Source\gd32f30x_usart.o
 .text.usart_synchronous_clock_enable
                0x00000000       0x24 libraries\GD32F30x_Firmware_Library\GD32F30x_standard_peripheral\Source\gd32f30x_usart.o
 .text.usart_synchronous_clock_disable
                0x00000000       0x24 libraries\GD32F30x_Firmware_Library\GD32F30x_standard_peripheral\Source\gd32f30x_usart.o
 .text.usart_synchronous_clock_config
                0x00000000       0x54 libraries\GD32F30x_Firmware_Library\GD32F30x_standard_peripheral\Source\gd32f30x_usart.o
 .text.usart_guard_time_config
                0x00000000       0x3a libraries\GD32F30x_Firmware_Library\GD32F30x_standard_peripheral\Source\gd32f30x_usart.o
 .text.usart_smartcard_mode_enable
                0x00000000       0x24 libraries\GD32F30x_Firmware_Library\GD32F30x_standard_peripheral\Source\gd32f30x_usart.o
 .text.usart_smartcard_mode_disable
                0x00000000       0x24 libraries\GD32F30x_Firmware_Library\GD32F30x_standard_peripheral\Source\gd32f30x_usart.o
 .text.usart_smartcard_mode_nack_enable
                0x00000000       0x24 libraries\GD32F30x_Firmware_Library\GD32F30x_standard_peripheral\Source\gd32f30x_usart.o
 .text.usart_smartcard_mode_nack_disable
                0x00000000       0x24 libraries\GD32F30x_Firmware_Library\GD32F30x_standard_peripheral\Source\gd32f30x_usart.o
 .text.usart_smartcard_autoretry_config
                0x00000000       0x3c libraries\GD32F30x_Firmware_Library\GD32F30x_standard_peripheral\Source\gd32f30x_usart.o
 .text.usart_block_length_config
                0x00000000       0x38 libraries\GD32F30x_Firmware_Library\GD32F30x_standard_peripheral\Source\gd32f30x_usart.o
 .text.usart_irda_mode_enable
                0x00000000       0x24 libraries\GD32F30x_Firmware_Library\GD32F30x_standard_peripheral\Source\gd32f30x_usart.o
 .text.usart_irda_mode_disable
                0x00000000       0x24 libraries\GD32F30x_Firmware_Library\GD32F30x_standard_peripheral\Source\gd32f30x_usart.o
 .text.usart_prescaler_config
                0x00000000       0x38 libraries\GD32F30x_Firmware_Library\GD32F30x_standard_peripheral\Source\gd32f30x_usart.o
 .text.usart_irda_lowpower_config
                0x00000000       0x3a libraries\GD32F30x_Firmware_Library\GD32F30x_standard_peripheral\Source\gd32f30x_usart.o
 .text.usart_hardware_flow_rts_config
                0x00000000       0x3c libraries\GD32F30x_Firmware_Library\GD32F30x_standard_peripheral\Source\gd32f30x_usart.o
 .text.usart_hardware_flow_cts_config
                0x00000000       0x3c libraries\GD32F30x_Firmware_Library\GD32F30x_standard_peripheral\Source\gd32f30x_usart.o
 .text.usart_interrupt_flag_clear
                0x00000000       0x3c libraries\GD32F30x_Firmware_Library\GD32F30x_standard_peripheral\Source\gd32f30x_usart.o
 .text          0x00000000        0x0 libraries\GD32F30x_Firmware_Library\GD32F30x_standard_peripheral\Source\gd32f30x_exti.o
 .data          0x00000000        0x0 libraries\GD32F30x_Firmware_Library\GD32F30x_standard_peripheral\Source\gd32f30x_exti.o
 .bss           0x00000000        0x0 libraries\GD32F30x_Firmware_Library\GD32F30x_standard_peripheral\Source\gd32f30x_exti.o
 .text.exti_deinit
                0x00000000       0x40 libraries\GD32F30x_Firmware_Library\GD32F30x_standard_peripheral\Source\gd32f30x_exti.o
 .text.exti_interrupt_enable
                0x00000000       0x24 libraries\GD32F30x_Firmware_Library\GD32F30x_standard_peripheral\Source\gd32f30x_exti.o
 .text.exti_event_enable
                0x00000000       0x24 libraries\GD32F30x_Firmware_Library\GD32F30x_standard_peripheral\Source\gd32f30x_exti.o
 .text.exti_interrupt_disable
                0x00000000       0x28 libraries\GD32F30x_Firmware_Library\GD32F30x_standard_peripheral\Source\gd32f30x_exti.o
 .text.exti_event_disable
                0x00000000       0x28 libraries\GD32F30x_Firmware_Library\GD32F30x_standard_peripheral\Source\gd32f30x_exti.o
 .text.exti_flag_get
                0x00000000       0x2c libraries\GD32F30x_Firmware_Library\GD32F30x_standard_peripheral\Source\gd32f30x_exti.o
 .text.exti_flag_clear
                0x00000000       0x20 libraries\GD32F30x_Firmware_Library\GD32F30x_standard_peripheral\Source\gd32f30x_exti.o
 .text.exti_software_interrupt_enable
                0x00000000       0x24 libraries\GD32F30x_Firmware_Library\GD32F30x_standard_peripheral\Source\gd32f30x_exti.o
 .text.exti_software_interrupt_disable
                0x00000000       0x28 libraries\GD32F30x_Firmware_Library\GD32F30x_standard_peripheral\Source\gd32f30x_exti.o
 .text          0x00000000        0x0 libraries\GD32F30x_Firmware_Library\GD32F30x_standard_peripheral\Source\gd32f30x_gpio.o
 .data          0x00000000        0x0 libraries\GD32F30x_Firmware_Library\GD32F30x_standard_peripheral\Source\gd32f30x_gpio.o
 .bss           0x00000000        0x0 libraries\GD32F30x_Firmware_Library\GD32F30x_standard_peripheral\Source\gd32f30x_gpio.o
 .text.gpio_deinit
                0x00000000      0x110 libraries\GD32F30x_Firmware_Library\GD32F30x_standard_peripheral\Source\gd32f30x_gpio.o
 .text.gpio_afio_deinit
                0x00000000       0x18 libraries\GD32F30x_Firmware_Library\GD32F30x_standard_peripheral\Source\gd32f30x_gpio.o
 .text.gpio_bit_reset
                0x00000000       0x20 libraries\GD32F30x_Firmware_Library\GD32F30x_standard_peripheral\Source\gd32f30x_gpio.o
 .text.gpio_port_write
                0x00000000       0x22 libraries\GD32F30x_Firmware_Library\GD32F30x_standard_peripheral\Source\gd32f30x_gpio.o
 .text.gpio_input_port_get
                0x00000000       0x1c libraries\GD32F30x_Firmware_Library\GD32F30x_standard_peripheral\Source\gd32f30x_gpio.o
 .text.gpio_output_bit_get
                0x00000000       0x2a libraries\GD32F30x_Firmware_Library\GD32F30x_standard_peripheral\Source\gd32f30x_gpio.o
 .text.gpio_output_port_get
                0x00000000       0x1c libraries\GD32F30x_Firmware_Library\GD32F30x_standard_peripheral\Source\gd32f30x_gpio.o
 .text.gpio_event_output_config
                0x00000000       0x4c libraries\GD32F30x_Firmware_Library\GD32F30x_standard_peripheral\Source\gd32f30x_gpio.o
 .text.gpio_event_output_enable
                0x00000000       0x20 libraries\GD32F30x_Firmware_Library\GD32F30x_standard_peripheral\Source\gd32f30x_gpio.o
 .text.gpio_event_output_disable
                0x00000000       0x20 libraries\GD32F30x_Firmware_Library\GD32F30x_standard_peripheral\Source\gd32f30x_gpio.o
 .text.gpio_pin_lock
                0x00000000       0x52 libraries\GD32F30x_Firmware_Library\GD32F30x_standard_peripheral\Source\gd32f30x_gpio.o
 .text.gpio_compensation_config
                0x00000000       0x30 libraries\GD32F30x_Firmware_Library\GD32F30x_standard_peripheral\Source\gd32f30x_gpio.o
 .text.gpio_compensation_flag_get
                0x00000000       0x24 libraries\GD32F30x_Firmware_Library\GD32F30x_standard_peripheral\Source\gd32f30x_gpio.o
 .text          0x00000000        0x0 libraries\GD32F30x_Firmware_Library\GD32F30x_standard_peripheral\Source\gd32f30x_misc.o
 .data          0x00000000        0x0 libraries\GD32F30x_Firmware_Library\GD32F30x_standard_peripheral\Source\gd32f30x_misc.o
 .bss           0x00000000        0x0 libraries\GD32F30x_Firmware_Library\GD32F30x_standard_peripheral\Source\gd32f30x_misc.o
 .text.nvic_vector_table_set
                0x00000000       0x2c libraries\GD32F30x_Firmware_Library\GD32F30x_standard_peripheral\Source\gd32f30x_misc.o
 .text.system_lowpower_set
                0x00000000       0x28 libraries\GD32F30x_Firmware_Library\GD32F30x_standard_peripheral\Source\gd32f30x_misc.o
 .text.system_lowpower_reset
                0x00000000       0x28 libraries\GD32F30x_Firmware_Library\GD32F30x_standard_peripheral\Source\gd32f30x_misc.o
 .text.systick_clksource_set
                0x00000000       0x38 libraries\GD32F30x_Firmware_Library\GD32F30x_standard_peripheral\Source\gd32f30x_misc.o
 .text          0x00000000        0x0 libraries\GD32F30x_Firmware_Library\GD32F30x_standard_peripheral\Source\gd32f30x_spi.o
 .data          0x00000000        0x0 libraries\GD32F30x_Firmware_Library\GD32F30x_standard_peripheral\Source\gd32f30x_spi.o
 .bss           0x00000000        0x0 libraries\GD32F30x_Firmware_Library\GD32F30x_standard_peripheral\Source\gd32f30x_spi.o
 .text.spi_i2s_deinit
                0x00000000       0x78 libraries\GD32F30x_Firmware_Library\GD32F30x_standard_peripheral\Source\gd32f30x_spi.o
 .text.spi_struct_para_init
                0x00000000       0x3e libraries\GD32F30x_Firmware_Library\GD32F30x_standard_peripheral\Source\gd32f30x_spi.o
 .text.spi_init
                0x00000000       0x84 libraries\GD32F30x_Firmware_Library\GD32F30x_standard_peripheral\Source\gd32f30x_spi.o
 .text.spi_enable
                0x00000000       0x20 libraries\GD32F30x_Firmware_Library\GD32F30x_standard_peripheral\Source\gd32f30x_spi.o
 .text.spi_disable
                0x00000000       0x20 libraries\GD32F30x_Firmware_Library\GD32F30x_standard_peripheral\Source\gd32f30x_spi.o
 .text.i2s_init
                0x00000000       0x5a libraries\GD32F30x_Firmware_Library\GD32F30x_standard_peripheral\Source\gd32f30x_spi.o
 .text.i2s_psc_config
                0x00000000      0x108 libraries\GD32F30x_Firmware_Library\GD32F30x_standard_peripheral\Source\gd32f30x_spi.o
 .text.i2s_enable
                0x00000000       0x24 libraries\GD32F30x_Firmware_Library\GD32F30x_standard_peripheral\Source\gd32f30x_spi.o
 .text.i2s_disable
                0x00000000       0x24 libraries\GD32F30x_Firmware_Library\GD32F30x_standard_peripheral\Source\gd32f30x_spi.o
 .text.spi_nss_output_enable
                0x00000000       0x24 libraries\GD32F30x_Firmware_Library\GD32F30x_standard_peripheral\Source\gd32f30x_spi.o
 .text.spi_nss_output_disable
                0x00000000       0x24 libraries\GD32F30x_Firmware_Library\GD32F30x_standard_peripheral\Source\gd32f30x_spi.o
 .text.spi_nss_internal_high
                0x00000000       0x20 libraries\GD32F30x_Firmware_Library\GD32F30x_standard_peripheral\Source\gd32f30x_spi.o
 .text.spi_nss_internal_low
                0x00000000       0x20 libraries\GD32F30x_Firmware_Library\GD32F30x_standard_peripheral\Source\gd32f30x_spi.o
 .text.spi_dma_enable
                0x00000000       0x40 libraries\GD32F30x_Firmware_Library\GD32F30x_standard_peripheral\Source\gd32f30x_spi.o
 .text.spi_dma_disable
                0x00000000       0x40 libraries\GD32F30x_Firmware_Library\GD32F30x_standard_peripheral\Source\gd32f30x_spi.o
 .text.spi_i2s_data_frame_format_config
                0x00000000       0x30 libraries\GD32F30x_Firmware_Library\GD32F30x_standard_peripheral\Source\gd32f30x_spi.o
 .text.spi_i2s_data_transmit
                0x00000000       0x22 libraries\GD32F30x_Firmware_Library\GD32F30x_standard_peripheral\Source\gd32f30x_spi.o
 .text.spi_i2s_data_receive
                0x00000000       0x1c libraries\GD32F30x_Firmware_Library\GD32F30x_standard_peripheral\Source\gd32f30x_spi.o
 .text.spi_bidirectional_transfer_config
                0x00000000       0x38 libraries\GD32F30x_Firmware_Library\GD32F30x_standard_peripheral\Source\gd32f30x_spi.o
 .text.spi_crc_polynomial_set
                0x00000000       0x22 libraries\GD32F30x_Firmware_Library\GD32F30x_standard_peripheral\Source\gd32f30x_spi.o
 .text.spi_crc_polynomial_get
                0x00000000       0x1c libraries\GD32F30x_Firmware_Library\GD32F30x_standard_peripheral\Source\gd32f30x_spi.o
 .text.spi_crc_on
                0x00000000       0x20 libraries\GD32F30x_Firmware_Library\GD32F30x_standard_peripheral\Source\gd32f30x_spi.o
 .text.spi_crc_off
                0x00000000       0x20 libraries\GD32F30x_Firmware_Library\GD32F30x_standard_peripheral\Source\gd32f30x_spi.o
 .text.spi_crc_next
                0x00000000       0x20 libraries\GD32F30x_Firmware_Library\GD32F30x_standard_peripheral\Source\gd32f30x_spi.o
 .text.spi_crc_get
                0x00000000       0x30 libraries\GD32F30x_Firmware_Library\GD32F30x_standard_peripheral\Source\gd32f30x_spi.o
 .text.spi_ti_mode_enable
                0x00000000       0x24 libraries\GD32F30x_Firmware_Library\GD32F30x_standard_peripheral\Source\gd32f30x_spi.o
 .text.spi_ti_mode_disable
                0x00000000       0x24 libraries\GD32F30x_Firmware_Library\GD32F30x_standard_peripheral\Source\gd32f30x_spi.o
 .text.spi_nssp_mode_enable
                0x00000000       0x24 libraries\GD32F30x_Firmware_Library\GD32F30x_standard_peripheral\Source\gd32f30x_spi.o
 .text.spi_nssp_mode_disable
                0x00000000       0x24 libraries\GD32F30x_Firmware_Library\GD32F30x_standard_peripheral\Source\gd32f30x_spi.o
 .text.qspi_enable
                0x00000000       0x24 libraries\GD32F30x_Firmware_Library\GD32F30x_standard_peripheral\Source\gd32f30x_spi.o
 .text.qspi_disable
                0x00000000       0x24 libraries\GD32F30x_Firmware_Library\GD32F30x_standard_peripheral\Source\gd32f30x_spi.o
 .text.qspi_write_enable
                0x00000000       0x24 libraries\GD32F30x_Firmware_Library\GD32F30x_standard_peripheral\Source\gd32f30x_spi.o
 .text.qspi_read_enable
                0x00000000       0x24 libraries\GD32F30x_Firmware_Library\GD32F30x_standard_peripheral\Source\gd32f30x_spi.o
 .text.qspi_io23_output_enable
                0x00000000       0x24 libraries\GD32F30x_Firmware_Library\GD32F30x_standard_peripheral\Source\gd32f30x_spi.o
 .text.qspi_io23_output_disable
                0x00000000       0x24 libraries\GD32F30x_Firmware_Library\GD32F30x_standard_peripheral\Source\gd32f30x_spi.o
 .text.spi_i2s_interrupt_enable
                0x00000000       0x64 libraries\GD32F30x_Firmware_Library\GD32F30x_standard_peripheral\Source\gd32f30x_spi.o
 .text.spi_i2s_interrupt_disable
                0x00000000       0x64 libraries\GD32F30x_Firmware_Library\GD32F30x_standard_peripheral\Source\gd32f30x_spi.o
 .text.spi_i2s_interrupt_flag_get
                0x00000000       0xe4 libraries\GD32F30x_Firmware_Library\GD32F30x_standard_peripheral\Source\gd32f30x_spi.o
 .text.spi_i2s_flag_get
                0x00000000       0x2a libraries\GD32F30x_Firmware_Library\GD32F30x_standard_peripheral\Source\gd32f30x_spi.o
 .text.spi_crc_error_clear
                0x00000000       0x24 libraries\GD32F30x_Firmware_Library\GD32F30x_standard_peripheral\Source\gd32f30x_spi.o
 .debug_info    0x00000000      0xb37 libraries\GD32F30x_Firmware_Library\GD32F30x_standard_peripheral\Source\gd32f30x_spi.o
 .debug_abbrev  0x00000000      0x1a4 libraries\GD32F30x_Firmware_Library\GD32F30x_standard_peripheral\Source\gd32f30x_spi.o
 .debug_loc     0x00000000      0xe48 libraries\GD32F30x_Firmware_Library\GD32F30x_standard_peripheral\Source\gd32f30x_spi.o
 .debug_aranges
                0x00000000      0x158 libraries\GD32F30x_Firmware_Library\GD32F30x_standard_peripheral\Source\gd32f30x_spi.o
 .debug_ranges  0x00000000      0x148 libraries\GD32F30x_Firmware_Library\GD32F30x_standard_peripheral\Source\gd32f30x_spi.o
 .debug_line    0x00000000      0x76a libraries\GD32F30x_Firmware_Library\GD32F30x_standard_peripheral\Source\gd32f30x_spi.o
 .debug_str     0x00000000      0x7ef libraries\GD32F30x_Firmware_Library\GD32F30x_standard_peripheral\Source\gd32f30x_spi.o
 .comment       0x00000000       0x4a libraries\GD32F30x_Firmware_Library\GD32F30x_standard_peripheral\Source\gd32f30x_spi.o
 .debug_frame   0x00000000      0x648 libraries\GD32F30x_Firmware_Library\GD32F30x_standard_peripheral\Source\gd32f30x_spi.o
 .ARM.attributes
                0x00000000       0x34 libraries\GD32F30x_Firmware_Library\GD32F30x_standard_peripheral\Source\gd32f30x_spi.o
 .text          0x00000000        0x0 libraries\gd32_drivers\drv_gpio.o
 .data          0x00000000        0x0 libraries\gd32_drivers\drv_gpio.o
 .bss           0x00000000        0x0 libraries\gd32_drivers\drv_gpio.o
 .text          0x00000000        0x0 libraries\gd32_drivers\drv_soft_spi.o
 .data          0x00000000        0x0 libraries\gd32_drivers\drv_soft_spi.o
 .bss           0x00000000        0x0 libraries\gd32_drivers\drv_soft_spi.o
 .rodata.spi_bit_ops_default
                0x00000000       0x30 libraries\gd32_drivers\drv_soft_spi.o
 .text          0x00000000        0x0 libraries\gd32_drivers\drv_usart.o
 .data          0x00000000        0x0 libraries\gd32_drivers\drv_usart.o
 .bss           0x00000000        0x0 libraries\gd32_drivers\drv_usart.o
 .text.USART3_IRQHandler
                0x00000000       0x1c libraries\gd32_drivers\drv_usart.o
 .text          0x00000000        0x0 libraries\gd32_drivers\drv_spi.o
 .data          0x00000000        0x0 libraries\gd32_drivers\drv_spi.o
 .bss           0x00000000        0x0 libraries\gd32_drivers\drv_spi.o
 .debug_info    0x00000000       0x72 libraries\gd32_drivers\drv_spi.o
 .debug_abbrev  0x00000000       0x26 libraries\gd32_drivers\drv_spi.o
 .debug_aranges
                0x00000000       0x18 libraries\gd32_drivers\drv_spi.o
 .debug_line    0x00000000       0x1d libraries\gd32_drivers\drv_spi.o
 .debug_str     0x00000000      0x190 libraries\gd32_drivers\drv_spi.o
 .comment       0x00000000       0x4a libraries\gd32_drivers\drv_spi.o
 .ARM.attributes
                0x00000000       0x34 libraries\gd32_drivers\drv_spi.o
 .text          0x00000000        0x0 build\kernel\components\drivers\ipc\pipe.o
 .data          0x00000000        0x0 build\kernel\components\drivers\ipc\pipe.o
 .bss           0x00000000        0x0 build\kernel\components\drivers\ipc\pipe.o
 .text.rt_list_init
                0x00000000       0x22 build\kernel\components\drivers\ipc\pipe.o
 .rodata        0x00000000       0x23 build\kernel\components\drivers\ipc\pipe.o
 .text.rt_wqueue_init
                0x00000000       0x38 build\kernel\components\drivers\ipc\pipe.o
 .text.rt_pipe_open
                0x00000000       0x6c build\kernel\components\drivers\ipc\pipe.o
 .text.rt_pipe_close
                0x00000000       0x52 build\kernel\components\drivers\ipc\pipe.o
 .text.rt_pipe_read
                0x00000000       0x92 build\kernel\components\drivers\ipc\pipe.o
 .text.rt_pipe_write
                0x00000000       0x92 build\kernel\components\drivers\ipc\pipe.o
 .text.rt_pipe_control
                0x00000000       0x1a build\kernel\components\drivers\ipc\pipe.o
 .text.rt_pipe_create
                0x00000000       0xec build\kernel\components\drivers\ipc\pipe.o
 .text.rt_pipe_delete
                0x00000000       0x7c build\kernel\components\drivers\ipc\pipe.o
 .rodata.__FUNCTION__.1
                0x00000000        0xf build\kernel\components\drivers\ipc\pipe.o
 .rodata.__FUNCTION__.0
                0x00000000        0xf build\kernel\components\drivers\ipc\pipe.o
 .debug_info    0x00000000      0xc02 build\kernel\components\drivers\ipc\pipe.o
 .debug_abbrev  0x00000000      0x239 build\kernel\components\drivers\ipc\pipe.o
 .debug_loc     0x00000000      0x2e8 build\kernel\components\drivers\ipc\pipe.o
 .debug_aranges
                0x00000000       0x60 build\kernel\components\drivers\ipc\pipe.o
 .debug_ranges  0x00000000       0x80 build\kernel\components\drivers\ipc\pipe.o
 .debug_line    0x00000000      0x3da build\kernel\components\drivers\ipc\pipe.o
 .debug_str     0x00000000      0x7ee build\kernel\components\drivers\ipc\pipe.o
 .comment       0x00000000       0x4a build\kernel\components\drivers\ipc\pipe.o
 .debug_frame   0x00000000      0x15c build\kernel\components\drivers\ipc\pipe.o
 .ARM.attributes
                0x00000000       0x34 build\kernel\components\drivers\ipc\pipe.o
 .text          0x00000000        0x0 build\kernel\components\drivers\ipc\dataqueue.o
 .data          0x00000000        0x0 build\kernel\components\drivers\ipc\dataqueue.o
 .bss           0x00000000        0x0 build\kernel\components\drivers\ipc\dataqueue.o
 .text          0x00000000        0x0 build\kernel\components\drivers\ipc\waitqueue.o
 .data          0x00000000        0x0 build\kernel\components\drivers\ipc\waitqueue.o
 .bss           0x00000000        0x0 build\kernel\components\drivers\ipc\waitqueue.o
 .text.rt_list_init
                0x00000000       0x22 build\kernel\components\drivers\ipc\waitqueue.o
 .text.rt_list_insert_before
                0x00000000       0x32 build\kernel\components\drivers\ipc\waitqueue.o
 .text.rt_list_remove
                0x00000000       0x36 build\kernel\components\drivers\ipc\waitqueue.o
 .text.rt_list_isempty
                0x00000000       0x24 build\kernel\components\drivers\ipc\waitqueue.o
 .text.rt_wqueue_add
                0x00000000       0x2e build\kernel\components\drivers\ipc\waitqueue.o
 .text.rt_wqueue_remove
                0x00000000       0x26 build\kernel\components\drivers\ipc\waitqueue.o
 .text.__wqueue_default_wake
                0x00000000       0x18 build\kernel\components\drivers\ipc\waitqueue.o
 .text.rt_wqueue_wakeup
                0x00000000       0x80 build\kernel\components\drivers\ipc\waitqueue.o
 .rodata        0x00000000       0x8f build\kernel\components\drivers\ipc\waitqueue.o
 .text.rt_wqueue_wait
                0x00000000      0x158 build\kernel\components\drivers\ipc\waitqueue.o
 .rodata.__FUNCTION__.0
                0x00000000        0xf build\kernel\components\drivers\ipc\waitqueue.o
 .debug_info    0x00000000      0x766 build\kernel\components\drivers\ipc\waitqueue.o
 .debug_abbrev  0x00000000      0x203 build\kernel\components\drivers\ipc\waitqueue.o
 .debug_loc     0x00000000      0x30e build\kernel\components\drivers\ipc\waitqueue.o
 .debug_aranges
                0x00000000       0x60 build\kernel\components\drivers\ipc\waitqueue.o
 .debug_ranges  0x00000000       0x50 build\kernel\components\drivers\ipc\waitqueue.o
 .debug_line    0x00000000      0x299 build\kernel\components\drivers\ipc\waitqueue.o
 .debug_str     0x00000000      0x461 build\kernel\components\drivers\ipc\waitqueue.o
 .comment       0x00000000       0x4a build\kernel\components\drivers\ipc\waitqueue.o
 .debug_frame   0x00000000      0x16c build\kernel\components\drivers\ipc\waitqueue.o
 .ARM.attributes
                0x00000000       0x34 build\kernel\components\drivers\ipc\waitqueue.o
 .text          0x00000000        0x0 build\kernel\components\drivers\ipc\workqueue.o
 .data          0x00000000        0x0 build\kernel\components\drivers\ipc\workqueue.o
 .bss           0x00000000        0x0 build\kernel\components\drivers\ipc\workqueue.o
 .text.rt_list_insert_after
                0x00000000       0x32 build\kernel\components\drivers\ipc\workqueue.o
 .text._workqueue_submit_work
                0x00000000      0x138 build\kernel\components\drivers\ipc\workqueue.o
 .text._workqueue_cancel_work
                0x00000000       0x7e build\kernel\components\drivers\ipc\workqueue.o
 .text._delayed_work_timeout_handler
                0x00000000       0xb4 build\kernel\components\drivers\ipc\workqueue.o
 .text.rt_work_init
                0x00000000       0x68 build\kernel\components\drivers\ipc\workqueue.o
 .text.rt_workqueue_destroy
                0x00000000       0x4c build\kernel\components\drivers\ipc\workqueue.o
 .text.rt_workqueue_dowork
                0x00000000       0x50 build\kernel\components\drivers\ipc\workqueue.o
 .text.rt_workqueue_submit_work
                0x00000000       0x6c build\kernel\components\drivers\ipc\workqueue.o
 .text.rt_workqueue_urgent_work
                0x00000000       0x94 build\kernel\components\drivers\ipc\workqueue.o
 .text.rt_workqueue_cancel_work
                0x00000000       0x4c build\kernel\components\drivers\ipc\workqueue.o
 .text.rt_workqueue_cancel_work_sync
                0x00000000       0x68 build\kernel\components\drivers\ipc\workqueue.o
 .text.rt_workqueue_cancel_all_work
                0x00000000       0x74 build\kernel\components\drivers\ipc\workqueue.o
 .text.rt_work_submit
                0x00000000       0x28 build\kernel\components\drivers\ipc\workqueue.o
 .text.rt_work_urgent
                0x00000000       0x24 build\kernel\components\drivers\ipc\workqueue.o
 .text.rt_work_cancel
                0x00000000       0x24 build\kernel\components\drivers\ipc\workqueue.o
 .rodata.__FUNCTION__.9
                0x00000000       0x1e build\kernel\components\drivers\ipc\workqueue.o
 .rodata.__FUNCTION__.8
                0x00000000        0xd build\kernel\components\drivers\ipc\workqueue.o
 .rodata.__FUNCTION__.7
                0x00000000       0x15 build\kernel\components\drivers\ipc\workqueue.o
 .rodata.__FUNCTION__.6
                0x00000000       0x14 build\kernel\components\drivers\ipc\workqueue.o
 .rodata.__FUNCTION__.5
                0x00000000       0x19 build\kernel\components\drivers\ipc\workqueue.o
 .rodata.__FUNCTION__.4
                0x00000000       0x19 build\kernel\components\drivers\ipc\workqueue.o
 .rodata.__FUNCTION__.3
                0x00000000       0x19 build\kernel\components\drivers\ipc\workqueue.o
 .rodata.__FUNCTION__.2
                0x00000000       0x1e build\kernel\components\drivers\ipc\workqueue.o
 .rodata.__FUNCTION__.1
                0x00000000       0x1d build\kernel\components\drivers\ipc\workqueue.o
 .text          0x00000000        0x0 build\kernel\components\drivers\ipc\ringbuffer.o
 .data          0x00000000        0x0 build\kernel\components\drivers\ipc\ringbuffer.o
 .bss           0x00000000        0x0 build\kernel\components\drivers\ipc\ringbuffer.o
 .text.rt_ringbuffer_status
                0x00000000       0x4e build\kernel\components\drivers\ipc\ringbuffer.o
 .rodata        0x00000000       0x19 build\kernel\components\drivers\ipc\ringbuffer.o
 .text.rt_ringbuffer_init
                0x00000000       0xa0 build\kernel\components\drivers\ipc\ringbuffer.o
 .text.rt_ringbuffer_put
                0x00000000      0x16c build\kernel\components\drivers\ipc\ringbuffer.o
 .text.rt_ringbuffer_put_force
                0x00000000      0x1e8 build\kernel\components\drivers\ipc\ringbuffer.o
 .text.rt_ringbuffer_get
                0x00000000      0x15c build\kernel\components\drivers\ipc\ringbuffer.o
 .text.rt_ringbuffer_peak
                0x00000000       0xdc build\kernel\components\drivers\ipc\ringbuffer.o
 .text.rt_ringbuffer_putchar
                0x00000000       0xbc build\kernel\components\drivers\ipc\ringbuffer.o
 .text.rt_ringbuffer_putchar_force
                0x00000000      0x100 build\kernel\components\drivers\ipc\ringbuffer.o
 .text.rt_ringbuffer_getchar
                0x00000000       0xb4 build\kernel\components\drivers\ipc\ringbuffer.o
 .text.rt_ringbuffer_data_len
                0x00000000       0x66 build\kernel\components\drivers\ipc\ringbuffer.o
 .text.rt_ringbuffer_reset
                0x00000000       0x54 build\kernel\components\drivers\ipc\ringbuffer.o
 .text.rt_ringbuffer_create
                0x00000000       0x74 build\kernel\components\drivers\ipc\ringbuffer.o
 .text.rt_ringbuffer_destroy
                0x00000000       0x3c build\kernel\components\drivers\ipc\ringbuffer.o
 .rodata.__FUNCTION__.10
                0x00000000       0x13 build\kernel\components\drivers\ipc\ringbuffer.o
 .rodata.__FUNCTION__.9
                0x00000000       0x12 build\kernel\components\drivers\ipc\ringbuffer.o
 .rodata.__FUNCTION__.8
                0x00000000       0x18 build\kernel\components\drivers\ipc\ringbuffer.o
 .rodata.__FUNCTION__.7
                0x00000000       0x12 build\kernel\components\drivers\ipc\ringbuffer.o
 .rodata.__FUNCTION__.6
                0x00000000       0x13 build\kernel\components\drivers\ipc\ringbuffer.o
 .rodata.__FUNCTION__.5
                0x00000000       0x16 build\kernel\components\drivers\ipc\ringbuffer.o
 .rodata.__FUNCTION__.4
                0x00000000       0x1c build\kernel\components\drivers\ipc\ringbuffer.o
 .rodata.__FUNCTION__.3
                0x00000000       0x16 build\kernel\components\drivers\ipc\ringbuffer.o
 .rodata.__FUNCTION__.2
                0x00000000       0x14 build\kernel\components\drivers\ipc\ringbuffer.o
 .rodata.__FUNCTION__.1
                0x00000000       0x15 build\kernel\components\drivers\ipc\ringbuffer.o
 .rodata.__FUNCTION__.0
                0x00000000       0x16 build\kernel\components\drivers\ipc\ringbuffer.o
 .debug_info    0x00000000      0x654 build\kernel\components\drivers\ipc\ringbuffer.o
 .debug_abbrev  0x00000000      0x1de build\kernel\components\drivers\ipc\ringbuffer.o
 .debug_loc     0x00000000      0x41c build\kernel\components\drivers\ipc\ringbuffer.o
 .debug_aranges
                0x00000000       0x80 build\kernel\components\drivers\ipc\ringbuffer.o
 .debug_ranges  0x00000000       0x70 build\kernel\components\drivers\ipc\ringbuffer.o
 .debug_line    0x00000000      0x575 build\kernel\components\drivers\ipc\ringbuffer.o
 .debug_str     0x00000000      0x3bf build\kernel\components\drivers\ipc\ringbuffer.o
 .comment       0x00000000       0x4a build\kernel\components\drivers\ipc\ringbuffer.o
 .debug_frame   0x00000000      0x1f8 build\kernel\components\drivers\ipc\ringbuffer.o
 .ARM.attributes
                0x00000000       0x34 build\kernel\components\drivers\ipc\ringbuffer.o
 .text          0x00000000        0x0 build\kernel\components\drivers\ipc\ringblk_buf.o
 .data          0x00000000        0x0 build\kernel\components\drivers\ipc\ringblk_buf.o
 .bss           0x00000000        0x0 build\kernel\components\drivers\ipc\ringblk_buf.o
 .text.rt_slist_init
                0x00000000       0x1a build\kernel\components\drivers\ipc\ringblk_buf.o
 .text.rt_slist_insert
                0x00000000       0x24 build\kernel\components\drivers\ipc\ringblk_buf.o
 .text.rt_slist_remove
                0x00000000       0x48 build\kernel\components\drivers\ipc\ringblk_buf.o
 .text.rt_slist_first
                0x00000000       0x18 build\kernel\components\drivers\ipc\ringblk_buf.o
 .text.rt_slist_next
                0x00000000       0x18 build\kernel\components\drivers\ipc\ringblk_buf.o
 .text.rt_slist_isempty
                0x00000000       0x22 build\kernel\components\drivers\ipc\ringblk_buf.o
 .rodata        0x00000000       0xaa build\kernel\components\drivers\ipc\ringblk_buf.o
 .text.rt_rbb_init
                0x00000000       0xec build\kernel\components\drivers\ipc\ringblk_buf.o
 .text.rt_rbb_create
                0x00000000       0x7a build\kernel\components\drivers\ipc\ringblk_buf.o
 .text.rt_rbb_destroy
                0x00000000       0x44 build\kernel\components\drivers\ipc\ringblk_buf.o
 .text.find_empty_blk_in_set
                0x00000000       0x70 build\kernel\components\drivers\ipc\ringblk_buf.o
 .text.list_append
                0x00000000       0x2a build\kernel\components\drivers\ipc\ringblk_buf.o
 .text.list_remove
                0x00000000       0x64 build\kernel\components\drivers\ipc\ringblk_buf.o
 .text.rt_rbb_blk_alloc
                0x00000000      0x1c4 build\kernel\components\drivers\ipc\ringblk_buf.o
 .text.rt_rbb_blk_put
                0x00000000       0x48 build\kernel\components\drivers\ipc\ringblk_buf.o
 .text.rt_rbb_blk_get
                0x00000000       0x88 build\kernel\components\drivers\ipc\ringblk_buf.o
 .text.rt_rbb_blk_size
                0x00000000       0x34 build\kernel\components\drivers\ipc\ringblk_buf.o
 .text.rt_rbb_blk_buf
                0x00000000       0x30 build\kernel\components\drivers\ipc\ringblk_buf.o
 .text.rt_rbb_blk_free
                0x00000000       0x8c build\kernel\components\drivers\ipc\ringblk_buf.o
 .text.rt_rbb_blk_queue_get
                0x00000000      0x11c build\kernel\components\drivers\ipc\ringblk_buf.o
 .text.rt_rbb_blk_queue_len
                0x00000000       0x64 build\kernel\components\drivers\ipc\ringblk_buf.o
 .text.rt_rbb_blk_queue_buf
                0x00000000       0x30 build\kernel\components\drivers\ipc\ringblk_buf.o
 .text.rt_rbb_blk_queue_free
                0x00000000       0x74 build\kernel\components\drivers\ipc\ringblk_buf.o
 .text.rt_rbb_next_blk_queue_len
                0x00000000       0xb8 build\kernel\components\drivers\ipc\ringblk_buf.o
 .text.rt_rbb_get_buf_size
                0x00000000       0x30 build\kernel\components\drivers\ipc\ringblk_buf.o
 .rodata.__FUNCTION__.14
                0x00000000        0xc build\kernel\components\drivers\ipc\ringblk_buf.o
 .rodata.__FUNCTION__.13
                0x00000000        0xf build\kernel\components\drivers\ipc\ringblk_buf.o
 .rodata.__FUNCTION__.12
                0x00000000       0x16 build\kernel\components\drivers\ipc\ringblk_buf.o
 .rodata.__FUNCTION__.11
                0x00000000       0x11 build\kernel\components\drivers\ipc\ringblk_buf.o
 .rodata.__FUNCTION__.10
                0x00000000        0xf build\kernel\components\drivers\ipc\ringblk_buf.o
 .rodata.__FUNCTION__.9
                0x00000000        0xf build\kernel\components\drivers\ipc\ringblk_buf.o
 .rodata.__FUNCTION__.8
                0x00000000       0x10 build\kernel\components\drivers\ipc\ringblk_buf.o
 .rodata.__FUNCTION__.7
                0x00000000        0xf build\kernel\components\drivers\ipc\ringblk_buf.o
 .rodata.__FUNCTION__.6
                0x00000000       0x10 build\kernel\components\drivers\ipc\ringblk_buf.o
 .rodata.__FUNCTION__.5
                0x00000000       0x15 build\kernel\components\drivers\ipc\ringblk_buf.o
 .rodata.__FUNCTION__.4
                0x00000000       0x15 build\kernel\components\drivers\ipc\ringblk_buf.o
 .rodata.__FUNCTION__.3
                0x00000000       0x15 build\kernel\components\drivers\ipc\ringblk_buf.o
 .rodata.__FUNCTION__.2
                0x00000000       0x16 build\kernel\components\drivers\ipc\ringblk_buf.o
 .rodata.__FUNCTION__.1
                0x00000000       0x1a build\kernel\components\drivers\ipc\ringblk_buf.o
 .rodata.__FUNCTION__.0
                0x00000000       0x14 build\kernel\components\drivers\ipc\ringblk_buf.o
 .debug_info    0x00000000      0xb17 build\kernel\components\drivers\ipc\ringblk_buf.o
 .debug_abbrev  0x00000000      0x278 build\kernel\components\drivers\ipc\ringblk_buf.o
 .debug_loc     0x00000000      0x7e0 build\kernel\components\drivers\ipc\ringblk_buf.o
 .debug_aranges
                0x00000000       0xd8 build\kernel\components\drivers\ipc\ringblk_buf.o
 .debug_ranges  0x00000000       0xc8 build\kernel\components\drivers\ipc\ringblk_buf.o
 .debug_line    0x00000000      0x793 build\kernel\components\drivers\ipc\ringblk_buf.o
 .debug_str     0x00000000      0x509 build\kernel\components\drivers\ipc\ringblk_buf.o
 .comment       0x00000000       0x4a build\kernel\components\drivers\ipc\ringblk_buf.o
 .debug_frame   0x00000000      0x390 build\kernel\components\drivers\ipc\ringblk_buf.o
 .ARM.attributes
                0x00000000       0x34 build\kernel\components\drivers\ipc\ringblk_buf.o
 .text          0x00000000        0x0 build\kernel\components\drivers\ipc\completion.o
 .data          0x00000000        0x0 build\kernel\components\drivers\ipc\completion.o
 .bss           0x00000000        0x0 build\kernel\components\drivers\ipc\completion.o
 .text          0x00000000        0x0 build\kernel\components\drivers\misc\pin.o
 .data          0x00000000        0x0 build\kernel\components\drivers\misc\pin.o
 .bss           0x00000000        0x0 build\kernel\components\drivers\misc\pin.o
 .text.rt_pin_detach_irq
                0x00000000       0x4c build\kernel\components\drivers\misc\pin.o
 .text.rt_pin_read
                0x00000000       0x3c build\kernel\components\drivers\misc\pin.o
 .text.rt_pin_get
                0x00000000       0x60 build\kernel\components\drivers\misc\pin.o
 .rodata.__FUNCTION__.5
                0x00000000       0x12 build\kernel\components\drivers\misc\pin.o
 .rodata.__FUNCTION__.1
                0x00000000        0xc build\kernel\components\drivers\misc\pin.o
 .rodata.__FUNCTION__.0
                0x00000000        0xb build\kernel\components\drivers\misc\pin.o
 .text          0x00000000        0x0 build\kernel\components\drivers\serial\serial.o
 .data          0x00000000        0x0 build\kernel\components\drivers\serial\serial.o
 .bss           0x00000000        0x0 build\kernel\components\drivers\serial\serial.o
 .text          0x00000000        0x0 build\kernel\components\drivers\spi\spi_core.o
 .data          0x00000000        0x0 build\kernel\components\drivers\spi\spi_core.o
 .bss           0x00000000        0x0 build\kernel\components\drivers\spi\spi_core.o
 .text.rt_spi_send_then_send
                0x00000000      0x148 build\kernel\components\drivers\spi\spi_core.o
 .text.rt_spi_take_bus
                0x00000000       0xc0 build\kernel\components\drivers\spi\spi_core.o
 .text.rt_spi_release_bus
                0x00000000       0x6c build\kernel\components\drivers\spi\spi_core.o
 .text.rt_spi_take
                0x00000000       0x70 build\kernel\components\drivers\spi\spi_core.o
 .text.rt_spi_release
                0x00000000       0x70 build\kernel\components\drivers\spi\spi_core.o
 .rodata.__FUNCTION__.7
                0x00000000       0x16 build\kernel\components\drivers\spi\spi_core.o
 .rodata.__FUNCTION__.3
                0x00000000       0x10 build\kernel\components\drivers\spi\spi_core.o
 .rodata.__FUNCTION__.2
                0x00000000       0x13 build\kernel\components\drivers\spi\spi_core.o
 .rodata.__FUNCTION__.1
                0x00000000        0xc build\kernel\components\drivers\spi\spi_core.o
 .rodata.__FUNCTION__.0
                0x00000000        0xf build\kernel\components\drivers\spi\spi_core.o
 .text          0x00000000        0x0 build\kernel\components\drivers\spi\spi_dev.o
 .data          0x00000000        0x0 build\kernel\components\drivers\spi\spi_dev.o
 .bss           0x00000000        0x0 build\kernel\components\drivers\spi\spi_dev.o
 .text          0x00000000        0x0 build\kernel\components\drivers\spi\spi-bit-ops.o
 .data          0x00000000        0x0 build\kernel\components\drivers\spi\spi-bit-ops.o
 .bss           0x00000000        0x0 build\kernel\components\drivers\spi\spi-bit-ops.o
 .text          0x00000000        0x0 d:/keil_v5/os/rtthread/env-windows-v1.3.5/tools/gnu_gcc/arm_gcc/mingw/bin/../lib/gcc/arm-none-eabi/10.3.1/../../../../arm-none-eabi/lib/thumb/v7e-m+fp/hard\libc.a(lib_a-atoi.o)
 .data          0x00000000        0x0 d:/keil_v5/os/rtthread/env-windows-v1.3.5/tools/gnu_gcc/arm_gcc/mingw/bin/../lib/gcc/arm-none-eabi/10.3.1/../../../../arm-none-eabi/lib/thumb/v7e-m+fp/hard\libc.a(lib_a-atoi.o)
 .bss           0x00000000        0x0 d:/keil_v5/os/rtthread/env-windows-v1.3.5/tools/gnu_gcc/arm_gcc/mingw/bin/../lib/gcc/arm-none-eabi/10.3.1/../../../../arm-none-eabi/lib/thumb/v7e-m+fp/hard\libc.a(lib_a-atoi.o)
 .text._atoi_r  0x00000000        0x8 d:/keil_v5/os/rtthread/env-windows-v1.3.5/tools/gnu_gcc/arm_gcc/mingw/bin/../lib/gcc/arm-none-eabi/10.3.1/../../../../arm-none-eabi/lib/thumb/v7e-m+fp/hard\libc.a(lib_a-atoi.o)
 .text          0x00000000        0x0 d:/keil_v5/os/rtthread/env-windows-v1.3.5/tools/gnu_gcc/arm_gcc/mingw/bin/../lib/gcc/arm-none-eabi/10.3.1/../../../../arm-none-eabi/lib/thumb/v7e-m+fp/hard\libc.a(lib_a-exit.o)
 .data          0x00000000        0x0 d:/keil_v5/os/rtthread/env-windows-v1.3.5/tools/gnu_gcc/arm_gcc/mingw/bin/../lib/gcc/arm-none-eabi/10.3.1/../../../../arm-none-eabi/lib/thumb/v7e-m+fp/hard\libc.a(lib_a-exit.o)
 .bss           0x00000000        0x0 d:/keil_v5/os/rtthread/env-windows-v1.3.5/tools/gnu_gcc/arm_gcc/mingw/bin/../lib/gcc/arm-none-eabi/10.3.1/../../../../arm-none-eabi/lib/thumb/v7e-m+fp/hard\libc.a(lib_a-exit.o)
 .text.exit     0x00000000       0x20 d:/keil_v5/os/rtthread/env-windows-v1.3.5/tools/gnu_gcc/arm_gcc/mingw/bin/../lib/gcc/arm-none-eabi/10.3.1/../../../../arm-none-eabi/lib/thumb/v7e-m+fp/hard\libc.a(lib_a-exit.o)
 .debug_frame   0x00000000       0x28 d:/keil_v5/os/rtthread/env-windows-v1.3.5/tools/gnu_gcc/arm_gcc/mingw/bin/../lib/gcc/arm-none-eabi/10.3.1/../../../../arm-none-eabi/lib/thumb/v7e-m+fp/hard\libc.a(lib_a-exit.o)
 .ARM.attributes
                0x00000000       0x34 d:/keil_v5/os/rtthread/env-windows-v1.3.5/tools/gnu_gcc/arm_gcc/mingw/bin/../lib/gcc/arm-none-eabi/10.3.1/../../../../arm-none-eabi/lib/thumb/v7e-m+fp/hard\libc.a(lib_a-exit.o)
 .text          0x00000000        0x0 d:/keil_v5/os/rtthread/env-windows-v1.3.5/tools/gnu_gcc/arm_gcc/mingw/bin/../lib/gcc/arm-none-eabi/10.3.1/../../../../arm-none-eabi/lib/thumb/v7e-m+fp/hard\libc.a(lib_a-impure.o)
 .data          0x00000000        0x0 d:/keil_v5/os/rtthread/env-windows-v1.3.5/tools/gnu_gcc/arm_gcc/mingw/bin/../lib/gcc/arm-none-eabi/10.3.1/../../../../arm-none-eabi/lib/thumb/v7e-m+fp/hard\libc.a(lib_a-impure.o)
 .bss           0x00000000        0x0 d:/keil_v5/os/rtthread/env-windows-v1.3.5/tools/gnu_gcc/arm_gcc/mingw/bin/../lib/gcc/arm-none-eabi/10.3.1/../../../../arm-none-eabi/lib/thumb/v7e-m+fp/hard\libc.a(lib_a-impure.o)
 .rodata._global_impure_ptr
                0x00000000        0x4 d:/keil_v5/os/rtthread/env-windows-v1.3.5/tools/gnu_gcc/arm_gcc/mingw/bin/../lib/gcc/arm-none-eabi/10.3.1/../../../../arm-none-eabi/lib/thumb/v7e-m+fp/hard\libc.a(lib_a-impure.o)
 .text          0x00000000        0x0 d:/keil_v5/os/rtthread/env-windows-v1.3.5/tools/gnu_gcc/arm_gcc/mingw/bin/../lib/gcc/arm-none-eabi/10.3.1/../../../../arm-none-eabi/lib/thumb/v7e-m+fp/hard\libc.a(lib_a-memcmp.o)
 .data          0x00000000        0x0 d:/keil_v5/os/rtthread/env-windows-v1.3.5/tools/gnu_gcc/arm_gcc/mingw/bin/../lib/gcc/arm-none-eabi/10.3.1/../../../../arm-none-eabi/lib/thumb/v7e-m+fp/hard\libc.a(lib_a-memcmp.o)
 .bss           0x00000000        0x0 d:/keil_v5/os/rtthread/env-windows-v1.3.5/tools/gnu_gcc/arm_gcc/mingw/bin/../lib/gcc/arm-none-eabi/10.3.1/../../../../arm-none-eabi/lib/thumb/v7e-m+fp/hard\libc.a(lib_a-memcmp.o)
 .text          0x00000000        0x0 d:/keil_v5/os/rtthread/env-windows-v1.3.5/tools/gnu_gcc/arm_gcc/mingw/bin/../lib/gcc/arm-none-eabi/10.3.1/../../../../arm-none-eabi/lib/thumb/v7e-m+fp/hard\libc.a(lib_a-memset.o)
 .data          0x00000000        0x0 d:/keil_v5/os/rtthread/env-windows-v1.3.5/tools/gnu_gcc/arm_gcc/mingw/bin/../lib/gcc/arm-none-eabi/10.3.1/../../../../arm-none-eabi/lib/thumb/v7e-m+fp/hard\libc.a(lib_a-memset.o)
 .bss           0x00000000        0x0 d:/keil_v5/os/rtthread/env-windows-v1.3.5/tools/gnu_gcc/arm_gcc/mingw/bin/../lib/gcc/arm-none-eabi/10.3.1/../../../../arm-none-eabi/lib/thumb/v7e-m+fp/hard\libc.a(lib_a-memset.o)
 .text          0x00000000        0x0 d:/keil_v5/os/rtthread/env-windows-v1.3.5/tools/gnu_gcc/arm_gcc/mingw/bin/../lib/gcc/arm-none-eabi/10.3.1/../../../../arm-none-eabi/lib/thumb/v7e-m+fp/hard\libc.a(lib_a-strcpy.o)
 .data          0x00000000        0x0 d:/keil_v5/os/rtthread/env-windows-v1.3.5/tools/gnu_gcc/arm_gcc/mingw/bin/../lib/gcc/arm-none-eabi/10.3.1/../../../../arm-none-eabi/lib/thumb/v7e-m+fp/hard\libc.a(lib_a-strcpy.o)
 .bss           0x00000000        0x0 d:/keil_v5/os/rtthread/env-windows-v1.3.5/tools/gnu_gcc/arm_gcc/mingw/bin/../lib/gcc/arm-none-eabi/10.3.1/../../../../arm-none-eabi/lib/thumb/v7e-m+fp/hard\libc.a(lib_a-strcpy.o)
 .text.strcpy   0x00000000       0xbc d:/keil_v5/os/rtthread/env-windows-v1.3.5/tools/gnu_gcc/arm_gcc/mingw/bin/../lib/gcc/arm-none-eabi/10.3.1/../../../../arm-none-eabi/lib/thumb/v7e-m+fp/hard\libc.a(lib_a-strcpy.o)
 .debug_frame   0x00000000       0x20 d:/keil_v5/os/rtthread/env-windows-v1.3.5/tools/gnu_gcc/arm_gcc/mingw/bin/../lib/gcc/arm-none-eabi/10.3.1/../../../../arm-none-eabi/lib/thumb/v7e-m+fp/hard\libc.a(lib_a-strcpy.o)
 .ARM.attributes
                0x00000000       0x34 d:/keil_v5/os/rtthread/env-windows-v1.3.5/tools/gnu_gcc/arm_gcc/mingw/bin/../lib/gcc/arm-none-eabi/10.3.1/../../../../arm-none-eabi/lib/thumb/v7e-m+fp/hard\libc.a(lib_a-strcpy.o)
 .data          0x00000000        0x0 d:/keil_v5/os/rtthread/env-windows-v1.3.5/tools/gnu_gcc/arm_gcc/mingw/bin/../lib/gcc/arm-none-eabi/10.3.1/../../../../arm-none-eabi/lib/thumb/v7e-m+fp/hard\libc.a(lib_a-strlen.o)
 .bss           0x00000000        0x0 d:/keil_v5/os/rtthread/env-windows-v1.3.5/tools/gnu_gcc/arm_gcc/mingw/bin/../lib/gcc/arm-none-eabi/10.3.1/../../../../arm-none-eabi/lib/thumb/v7e-m+fp/hard\libc.a(lib_a-strlen.o)
 .text          0x00000000        0x0 d:/keil_v5/os/rtthread/env-windows-v1.3.5/tools/gnu_gcc/arm_gcc/mingw/bin/../lib/gcc/arm-none-eabi/10.3.1/../../../../arm-none-eabi/lib/thumb/v7e-m+fp/hard\libc.a(lib_a-strncmp.o)
 .data          0x00000000        0x0 d:/keil_v5/os/rtthread/env-windows-v1.3.5/tools/gnu_gcc/arm_gcc/mingw/bin/../lib/gcc/arm-none-eabi/10.3.1/../../../../arm-none-eabi/lib/thumb/v7e-m+fp/hard\libc.a(lib_a-strncmp.o)
 .bss           0x00000000        0x0 d:/keil_v5/os/rtthread/env-windows-v1.3.5/tools/gnu_gcc/arm_gcc/mingw/bin/../lib/gcc/arm-none-eabi/10.3.1/../../../../arm-none-eabi/lib/thumb/v7e-m+fp/hard\libc.a(lib_a-strncmp.o)
 .text          0x00000000        0x0 d:/keil_v5/os/rtthread/env-windows-v1.3.5/tools/gnu_gcc/arm_gcc/mingw/bin/../lib/gcc/arm-none-eabi/10.3.1/../../../../arm-none-eabi/lib/thumb/v7e-m+fp/hard\libc.a(lib_a-strncpy.o)
 .data          0x00000000        0x0 d:/keil_v5/os/rtthread/env-windows-v1.3.5/tools/gnu_gcc/arm_gcc/mingw/bin/../lib/gcc/arm-none-eabi/10.3.1/../../../../arm-none-eabi/lib/thumb/v7e-m+fp/hard\libc.a(lib_a-strncpy.o)
 .bss           0x00000000        0x0 d:/keil_v5/os/rtthread/env-windows-v1.3.5/tools/gnu_gcc/arm_gcc/mingw/bin/../lib/gcc/arm-none-eabi/10.3.1/../../../../arm-none-eabi/lib/thumb/v7e-m+fp/hard\libc.a(lib_a-strncpy.o)
 .text          0x00000000        0x0 d:/keil_v5/os/rtthread/env-windows-v1.3.5/tools/gnu_gcc/arm_gcc/mingw/bin/../lib/gcc/arm-none-eabi/10.3.1/../../../../arm-none-eabi/lib/thumb/v7e-m+fp/hard\libc.a(lib_a-strtol.o)
 .data          0x00000000        0x0 d:/keil_v5/os/rtthread/env-windows-v1.3.5/tools/gnu_gcc/arm_gcc/mingw/bin/../lib/gcc/arm-none-eabi/10.3.1/../../../../arm-none-eabi/lib/thumb/v7e-m+fp/hard\libc.a(lib_a-strtol.o)
 .bss           0x00000000        0x0 d:/keil_v5/os/rtthread/env-windows-v1.3.5/tools/gnu_gcc/arm_gcc/mingw/bin/../lib/gcc/arm-none-eabi/10.3.1/../../../../arm-none-eabi/lib/thumb/v7e-m+fp/hard\libc.a(lib_a-strtol.o)
 .text._strtol_r
                0x00000000       0x1c d:/keil_v5/os/rtthread/env-windows-v1.3.5/tools/gnu_gcc/arm_gcc/mingw/bin/../lib/gcc/arm-none-eabi/10.3.1/../../../../arm-none-eabi/lib/thumb/v7e-m+fp/hard\libc.a(lib_a-strtol.o)
 .text.strtol_l
                0x00000000       0x2c d:/keil_v5/os/rtthread/env-windows-v1.3.5/tools/gnu_gcc/arm_gcc/mingw/bin/../lib/gcc/arm-none-eabi/10.3.1/../../../../arm-none-eabi/lib/thumb/v7e-m+fp/hard\libc.a(lib_a-strtol.o)
 .text          0x00000000        0x0 d:/keil_v5/os/rtthread/env-windows-v1.3.5/tools/gnu_gcc/arm_gcc/mingw/bin/../lib/gcc/arm-none-eabi/10.3.1/../../../../arm-none-eabi/lib/thumb/v7e-m+fp/hard\libc.a(lib_a-__call_atexit.o)
 .data          0x00000000        0x0 d:/keil_v5/os/rtthread/env-windows-v1.3.5/tools/gnu_gcc/arm_gcc/mingw/bin/../lib/gcc/arm-none-eabi/10.3.1/../../../../arm-none-eabi/lib/thumb/v7e-m+fp/hard\libc.a(lib_a-__call_atexit.o)
 .bss           0x00000000        0x0 d:/keil_v5/os/rtthread/env-windows-v1.3.5/tools/gnu_gcc/arm_gcc/mingw/bin/../lib/gcc/arm-none-eabi/10.3.1/../../../../arm-none-eabi/lib/thumb/v7e-m+fp/hard\libc.a(lib_a-__call_atexit.o)
 .text.startup.register_fini
                0x00000000       0x14 d:/keil_v5/os/rtthread/env-windows-v1.3.5/tools/gnu_gcc/arm_gcc/mingw/bin/../lib/gcc/arm-none-eabi/10.3.1/../../../../arm-none-eabi/lib/thumb/v7e-m+fp/hard\libc.a(lib_a-__call_atexit.o)
 .init_array.00000
                0x00000000        0x4 d:/keil_v5/os/rtthread/env-windows-v1.3.5/tools/gnu_gcc/arm_gcc/mingw/bin/../lib/gcc/arm-none-eabi/10.3.1/../../../../arm-none-eabi/lib/thumb/v7e-m+fp/hard\libc.a(lib_a-__call_atexit.o)
 .text.__call_exitprocs
                0x00000000       0xcc d:/keil_v5/os/rtthread/env-windows-v1.3.5/tools/gnu_gcc/arm_gcc/mingw/bin/../lib/gcc/arm-none-eabi/10.3.1/../../../../arm-none-eabi/lib/thumb/v7e-m+fp/hard\libc.a(lib_a-__call_atexit.o)
 .data.__atexit_recursive_mutex
                0x00000000        0x4 d:/keil_v5/os/rtthread/env-windows-v1.3.5/tools/gnu_gcc/arm_gcc/mingw/bin/../lib/gcc/arm-none-eabi/10.3.1/../../../../arm-none-eabi/lib/thumb/v7e-m+fp/hard\libc.a(lib_a-__call_atexit.o)
 .debug_frame   0x00000000       0x68 d:/keil_v5/os/rtthread/env-windows-v1.3.5/tools/gnu_gcc/arm_gcc/mingw/bin/../lib/gcc/arm-none-eabi/10.3.1/../../../../arm-none-eabi/lib/thumb/v7e-m+fp/hard\libc.a(lib_a-__call_atexit.o)
 .ARM.attributes
                0x00000000       0x34 d:/keil_v5/os/rtthread/env-windows-v1.3.5/tools/gnu_gcc/arm_gcc/mingw/bin/../lib/gcc/arm-none-eabi/10.3.1/../../../../arm-none-eabi/lib/thumb/v7e-m+fp/hard\libc.a(lib_a-__call_atexit.o)
 .text          0x00000000        0x0 d:/keil_v5/os/rtthread/env-windows-v1.3.5/tools/gnu_gcc/arm_gcc/mingw/bin/../lib/gcc/arm-none-eabi/10.3.1/../../../../arm-none-eabi/lib/thumb/v7e-m+fp/hard\libc.a(lib_a-atexit.o)
 .data          0x00000000        0x0 d:/keil_v5/os/rtthread/env-windows-v1.3.5/tools/gnu_gcc/arm_gcc/mingw/bin/../lib/gcc/arm-none-eabi/10.3.1/../../../../arm-none-eabi/lib/thumb/v7e-m+fp/hard\libc.a(lib_a-atexit.o)
 .bss           0x00000000        0x0 d:/keil_v5/os/rtthread/env-windows-v1.3.5/tools/gnu_gcc/arm_gcc/mingw/bin/../lib/gcc/arm-none-eabi/10.3.1/../../../../arm-none-eabi/lib/thumb/v7e-m+fp/hard\libc.a(lib_a-atexit.o)
 .text.atexit   0x00000000        0xc d:/keil_v5/os/rtthread/env-windows-v1.3.5/tools/gnu_gcc/arm_gcc/mingw/bin/../lib/gcc/arm-none-eabi/10.3.1/../../../../arm-none-eabi/lib/thumb/v7e-m+fp/hard\libc.a(lib_a-atexit.o)
 .debug_frame   0x00000000       0x20 d:/keil_v5/os/rtthread/env-windows-v1.3.5/tools/gnu_gcc/arm_gcc/mingw/bin/../lib/gcc/arm-none-eabi/10.3.1/../../../../arm-none-eabi/lib/thumb/v7e-m+fp/hard\libc.a(lib_a-atexit.o)
 .ARM.attributes
                0x00000000       0x34 d:/keil_v5/os/rtthread/env-windows-v1.3.5/tools/gnu_gcc/arm_gcc/mingw/bin/../lib/gcc/arm-none-eabi/10.3.1/../../../../arm-none-eabi/lib/thumb/v7e-m+fp/hard\libc.a(lib_a-atexit.o)
 .text          0x00000000        0x0 d:/keil_v5/os/rtthread/env-windows-v1.3.5/tools/gnu_gcc/arm_gcc/mingw/bin/../lib/gcc/arm-none-eabi/10.3.1/../../../../arm-none-eabi/lib/thumb/v7e-m+fp/hard\libc.a(lib_a-ctype_.o)
 .data          0x00000000        0x0 d:/keil_v5/os/rtthread/env-windows-v1.3.5/tools/gnu_gcc/arm_gcc/mingw/bin/../lib/gcc/arm-none-eabi/10.3.1/../../../../arm-none-eabi/lib/thumb/v7e-m+fp/hard\libc.a(lib_a-ctype_.o)
 .bss           0x00000000        0x0 d:/keil_v5/os/rtthread/env-windows-v1.3.5/tools/gnu_gcc/arm_gcc/mingw/bin/../lib/gcc/arm-none-eabi/10.3.1/../../../../arm-none-eabi/lib/thumb/v7e-m+fp/hard\libc.a(lib_a-ctype_.o)
 .text          0x00000000        0x0 d:/keil_v5/os/rtthread/env-windows-v1.3.5/tools/gnu_gcc/arm_gcc/mingw/bin/../lib/gcc/arm-none-eabi/10.3.1/../../../../arm-none-eabi/lib/thumb/v7e-m+fp/hard\libc.a(lib_a-fini.o)
 .data          0x00000000        0x0 d:/keil_v5/os/rtthread/env-windows-v1.3.5/tools/gnu_gcc/arm_gcc/mingw/bin/../lib/gcc/arm-none-eabi/10.3.1/../../../../arm-none-eabi/lib/thumb/v7e-m+fp/hard\libc.a(lib_a-fini.o)
 .bss           0x00000000        0x0 d:/keil_v5/os/rtthread/env-windows-v1.3.5/tools/gnu_gcc/arm_gcc/mingw/bin/../lib/gcc/arm-none-eabi/10.3.1/../../../../arm-none-eabi/lib/thumb/v7e-m+fp/hard\libc.a(lib_a-fini.o)
 .text.__libc_fini_array
                0x00000000       0x2c d:/keil_v5/os/rtthread/env-windows-v1.3.5/tools/gnu_gcc/arm_gcc/mingw/bin/../lib/gcc/arm-none-eabi/10.3.1/../../../../arm-none-eabi/lib/thumb/v7e-m+fp/hard\libc.a(lib_a-fini.o)
 .debug_frame   0x00000000       0x34 d:/keil_v5/os/rtthread/env-windows-v1.3.5/tools/gnu_gcc/arm_gcc/mingw/bin/../lib/gcc/arm-none-eabi/10.3.1/../../../../arm-none-eabi/lib/thumb/v7e-m+fp/hard\libc.a(lib_a-fini.o)
 .ARM.attributes
                0x00000000       0x34 d:/keil_v5/os/rtthread/env-windows-v1.3.5/tools/gnu_gcc/arm_gcc/mingw/bin/../lib/gcc/arm-none-eabi/10.3.1/../../../../arm-none-eabi/lib/thumb/v7e-m+fp/hard\libc.a(lib_a-fini.o)
 .text          0x00000000        0x0 d:/keil_v5/os/rtthread/env-windows-v1.3.5/tools/gnu_gcc/arm_gcc/mingw/bin/../lib/gcc/arm-none-eabi/10.3.1/../../../../arm-none-eabi/lib/thumb/v7e-m+fp/hard\libc.a(lib_a-lock.o)
 .data          0x00000000        0x0 d:/keil_v5/os/rtthread/env-windows-v1.3.5/tools/gnu_gcc/arm_gcc/mingw/bin/../lib/gcc/arm-none-eabi/10.3.1/../../../../arm-none-eabi/lib/thumb/v7e-m+fp/hard\libc.a(lib_a-lock.o)
 .bss           0x00000000        0x0 d:/keil_v5/os/rtthread/env-windows-v1.3.5/tools/gnu_gcc/arm_gcc/mingw/bin/../lib/gcc/arm-none-eabi/10.3.1/../../../../arm-none-eabi/lib/thumb/v7e-m+fp/hard\libc.a(lib_a-lock.o)
 .text.__retarget_lock_init
                0x00000000        0x4 d:/keil_v5/os/rtthread/env-windows-v1.3.5/tools/gnu_gcc/arm_gcc/mingw/bin/../lib/gcc/arm-none-eabi/10.3.1/../../../../arm-none-eabi/lib/thumb/v7e-m+fp/hard\libc.a(lib_a-lock.o)
 .text.__retarget_lock_init_recursive
                0x00000000        0x4 d:/keil_v5/os/rtthread/env-windows-v1.3.5/tools/gnu_gcc/arm_gcc/mingw/bin/../lib/gcc/arm-none-eabi/10.3.1/../../../../arm-none-eabi/lib/thumb/v7e-m+fp/hard\libc.a(lib_a-lock.o)
 .text.__retarget_lock_close
                0x00000000        0x4 d:/keil_v5/os/rtthread/env-windows-v1.3.5/tools/gnu_gcc/arm_gcc/mingw/bin/../lib/gcc/arm-none-eabi/10.3.1/../../../../arm-none-eabi/lib/thumb/v7e-m+fp/hard\libc.a(lib_a-lock.o)
 .text.__retarget_lock_close_recursive
                0x00000000        0x4 d:/keil_v5/os/rtthread/env-windows-v1.3.5/tools/gnu_gcc/arm_gcc/mingw/bin/../lib/gcc/arm-none-eabi/10.3.1/../../../../arm-none-eabi/lib/thumb/v7e-m+fp/hard\libc.a(lib_a-lock.o)
 .text.__retarget_lock_acquire
                0x00000000        0x4 d:/keil_v5/os/rtthread/env-windows-v1.3.5/tools/gnu_gcc/arm_gcc/mingw/bin/../lib/gcc/arm-none-eabi/10.3.1/../../../../arm-none-eabi/lib/thumb/v7e-m+fp/hard\libc.a(lib_a-lock.o)
 .text.__retarget_lock_acquire_recursive
                0x00000000        0x4 d:/keil_v5/os/rtthread/env-windows-v1.3.5/tools/gnu_gcc/arm_gcc/mingw/bin/../lib/gcc/arm-none-eabi/10.3.1/../../../../arm-none-eabi/lib/thumb/v7e-m+fp/hard\libc.a(lib_a-lock.o)
 .text.__retarget_lock_try_acquire
                0x00000000        0x4 d:/keil_v5/os/rtthread/env-windows-v1.3.5/tools/gnu_gcc/arm_gcc/mingw/bin/../lib/gcc/arm-none-eabi/10.3.1/../../../../arm-none-eabi/lib/thumb/v7e-m+fp/hard\libc.a(lib_a-lock.o)
 .text.__retarget_lock_try_acquire_recursive
                0x00000000        0x4 d:/keil_v5/os/rtthread/env-windows-v1.3.5/tools/gnu_gcc/arm_gcc/mingw/bin/../lib/gcc/arm-none-eabi/10.3.1/../../../../arm-none-eabi/lib/thumb/v7e-m+fp/hard\libc.a(lib_a-lock.o)
 .text.__retarget_lock_release
                0x00000000        0x4 d:/keil_v5/os/rtthread/env-windows-v1.3.5/tools/gnu_gcc/arm_gcc/mingw/bin/../lib/gcc/arm-none-eabi/10.3.1/../../../../arm-none-eabi/lib/thumb/v7e-m+fp/hard\libc.a(lib_a-lock.o)
 .text.__retarget_lock_release_recursive
                0x00000000        0x4 d:/keil_v5/os/rtthread/env-windows-v1.3.5/tools/gnu_gcc/arm_gcc/mingw/bin/../lib/gcc/arm-none-eabi/10.3.1/../../../../arm-none-eabi/lib/thumb/v7e-m+fp/hard\libc.a(lib_a-lock.o)
 .bss.__lock___arc4random_mutex
                0x00000000        0x1 d:/keil_v5/os/rtthread/env-windows-v1.3.5/tools/gnu_gcc/arm_gcc/mingw/bin/../lib/gcc/arm-none-eabi/10.3.1/../../../../arm-none-eabi/lib/thumb/v7e-m+fp/hard\libc.a(lib_a-lock.o)
 .bss.__lock___at_quick_exit_mutex
                0x00000000        0x1 d:/keil_v5/os/rtthread/env-windows-v1.3.5/tools/gnu_gcc/arm_gcc/mingw/bin/../lib/gcc/arm-none-eabi/10.3.1/../../../../arm-none-eabi/lib/thumb/v7e-m+fp/hard\libc.a(lib_a-lock.o)
 .bss.__lock___atexit_recursive_mutex
                0x00000000        0x1 d:/keil_v5/os/rtthread/env-windows-v1.3.5/tools/gnu_gcc/arm_gcc/mingw/bin/../lib/gcc/arm-none-eabi/10.3.1/../../../../arm-none-eabi/lib/thumb/v7e-m+fp/hard\libc.a(lib_a-lock.o)
 .bss.__lock___dd_hash_mutex
                0x00000000        0x1 d:/keil_v5/os/rtthread/env-windows-v1.3.5/tools/gnu_gcc/arm_gcc/mingw/bin/../lib/gcc/arm-none-eabi/10.3.1/../../../../arm-none-eabi/lib/thumb/v7e-m+fp/hard\libc.a(lib_a-lock.o)
 .bss.__lock___env_recursive_mutex
                0x00000000        0x1 d:/keil_v5/os/rtthread/env-windows-v1.3.5/tools/gnu_gcc/arm_gcc/mingw/bin/../lib/gcc/arm-none-eabi/10.3.1/../../../../arm-none-eabi/lib/thumb/v7e-m+fp/hard\libc.a(lib_a-lock.o)
 .bss.__lock___malloc_recursive_mutex
                0x00000000        0x1 d:/keil_v5/os/rtthread/env-windows-v1.3.5/tools/gnu_gcc/arm_gcc/mingw/bin/../lib/gcc/arm-none-eabi/10.3.1/../../../../arm-none-eabi/lib/thumb/v7e-m+fp/hard\libc.a(lib_a-lock.o)
 .bss.__lock___sfp_recursive_mutex
                0x00000000        0x1 d:/keil_v5/os/rtthread/env-windows-v1.3.5/tools/gnu_gcc/arm_gcc/mingw/bin/../lib/gcc/arm-none-eabi/10.3.1/../../../../arm-none-eabi/lib/thumb/v7e-m+fp/hard\libc.a(lib_a-lock.o)
 .bss.__lock___sinit_recursive_mutex
                0x00000000        0x1 d:/keil_v5/os/rtthread/env-windows-v1.3.5/tools/gnu_gcc/arm_gcc/mingw/bin/../lib/gcc/arm-none-eabi/10.3.1/../../../../arm-none-eabi/lib/thumb/v7e-m+fp/hard\libc.a(lib_a-lock.o)
 .bss.__lock___tz_mutex
                0x00000000        0x1 d:/keil_v5/os/rtthread/env-windows-v1.3.5/tools/gnu_gcc/arm_gcc/mingw/bin/../lib/gcc/arm-none-eabi/10.3.1/../../../../arm-none-eabi/lib/thumb/v7e-m+fp/hard\libc.a(lib_a-lock.o)
 .debug_frame   0x00000000       0xb0 d:/keil_v5/os/rtthread/env-windows-v1.3.5/tools/gnu_gcc/arm_gcc/mingw/bin/../lib/gcc/arm-none-eabi/10.3.1/../../../../arm-none-eabi/lib/thumb/v7e-m+fp/hard\libc.a(lib_a-lock.o)
 .ARM.attributes
                0x00000000       0x34 d:/keil_v5/os/rtthread/env-windows-v1.3.5/tools/gnu_gcc/arm_gcc/mingw/bin/../lib/gcc/arm-none-eabi/10.3.1/../../../../arm-none-eabi/lib/thumb/v7e-m+fp/hard\libc.a(lib_a-lock.o)
 .text          0x00000000        0x0 d:/keil_v5/os/rtthread/env-windows-v1.3.5/tools/gnu_gcc/arm_gcc/mingw/bin/../lib/gcc/arm-none-eabi/10.3.1/../../../../arm-none-eabi/lib/thumb/v7e-m+fp/hard\libc.a(lib_a-__atexit.o)
 .data          0x00000000        0x0 d:/keil_v5/os/rtthread/env-windows-v1.3.5/tools/gnu_gcc/arm_gcc/mingw/bin/../lib/gcc/arm-none-eabi/10.3.1/../../../../arm-none-eabi/lib/thumb/v7e-m+fp/hard\libc.a(lib_a-__atexit.o)
 .bss           0x00000000        0x0 d:/keil_v5/os/rtthread/env-windows-v1.3.5/tools/gnu_gcc/arm_gcc/mingw/bin/../lib/gcc/arm-none-eabi/10.3.1/../../../../arm-none-eabi/lib/thumb/v7e-m+fp/hard\libc.a(lib_a-__atexit.o)
 .text.__register_exitproc
                0x00000000       0x8c d:/keil_v5/os/rtthread/env-windows-v1.3.5/tools/gnu_gcc/arm_gcc/mingw/bin/../lib/gcc/arm-none-eabi/10.3.1/../../../../arm-none-eabi/lib/thumb/v7e-m+fp/hard\libc.a(lib_a-__atexit.o)
 .debug_frame   0x00000000       0x34 d:/keil_v5/os/rtthread/env-windows-v1.3.5/tools/gnu_gcc/arm_gcc/mingw/bin/../lib/gcc/arm-none-eabi/10.3.1/../../../../arm-none-eabi/lib/thumb/v7e-m+fp/hard\libc.a(lib_a-__atexit.o)
 .ARM.attributes
                0x00000000       0x34 d:/keil_v5/os/rtthread/env-windows-v1.3.5/tools/gnu_gcc/arm_gcc/mingw/bin/../lib/gcc/arm-none-eabi/10.3.1/../../../../arm-none-eabi/lib/thumb/v7e-m+fp/hard\libc.a(lib_a-__atexit.o)
 .text          0x00000000      0x254 d:/keil_v5/os/rtthread/env-windows-v1.3.5/tools/gnu_gcc/arm_gcc/mingw/bin/../lib/gcc/arm-none-eabi/10.3.1/thumb/v7e-m+fp/hard\libgcc.a(_arm_muldf3.o)
 .data          0x00000000        0x0 d:/keil_v5/os/rtthread/env-windows-v1.3.5/tools/gnu_gcc/arm_gcc/mingw/bin/../lib/gcc/arm-none-eabi/10.3.1/thumb/v7e-m+fp/hard\libgcc.a(_arm_muldf3.o)
 .bss           0x00000000        0x0 d:/keil_v5/os/rtthread/env-windows-v1.3.5/tools/gnu_gcc/arm_gcc/mingw/bin/../lib/gcc/arm-none-eabi/10.3.1/thumb/v7e-m+fp/hard\libgcc.a(_arm_muldf3.o)
 .debug_frame   0x00000000       0x30 d:/keil_v5/os/rtthread/env-windows-v1.3.5/tools/gnu_gcc/arm_gcc/mingw/bin/../lib/gcc/arm-none-eabi/10.3.1/thumb/v7e-m+fp/hard\libgcc.a(_arm_muldf3.o)
 .ARM.attributes
                0x00000000       0x1e d:/keil_v5/os/rtthread/env-windows-v1.3.5/tools/gnu_gcc/arm_gcc/mingw/bin/../lib/gcc/arm-none-eabi/10.3.1/thumb/v7e-m+fp/hard\libgcc.a(_arm_muldf3.o)
 .data          0x00000000        0x0 d:/keil_v5/os/rtthread/env-windows-v1.3.5/tools/gnu_gcc/arm_gcc/mingw/bin/../lib/gcc/arm-none-eabi/10.3.1/thumb/v7e-m+fp/hard\libgcc.a(_arm_muldivdf3.o)
 .bss           0x00000000        0x0 d:/keil_v5/os/rtthread/env-windows-v1.3.5/tools/gnu_gcc/arm_gcc/mingw/bin/../lib/gcc/arm-none-eabi/10.3.1/thumb/v7e-m+fp/hard\libgcc.a(_arm_muldivdf3.o)
 .data          0x00000000        0x0 d:/keil_v5/os/rtthread/env-windows-v1.3.5/tools/gnu_gcc/arm_gcc/mingw/bin/../lib/gcc/arm-none-eabi/10.3.1/thumb/v7e-m+fp/hard\libgcc.a(_arm_fixunsdfsi.o)
 .bss           0x00000000        0x0 d:/keil_v5/os/rtthread/env-windows-v1.3.5/tools/gnu_gcc/arm_gcc/mingw/bin/../lib/gcc/arm-none-eabi/10.3.1/thumb/v7e-m+fp/hard\libgcc.a(_arm_fixunsdfsi.o)
 .text          0x00000000       0xa0 d:/keil_v5/os/rtthread/env-windows-v1.3.5/tools/gnu_gcc/arm_gcc/mingw/bin/../lib/gcc/arm-none-eabi/10.3.1/thumb/v7e-m+fp/hard\libgcc.a(_aeabi_ldivmod.o)
 .data          0x00000000        0x0 d:/keil_v5/os/rtthread/env-windows-v1.3.5/tools/gnu_gcc/arm_gcc/mingw/bin/../lib/gcc/arm-none-eabi/10.3.1/thumb/v7e-m+fp/hard\libgcc.a(_aeabi_ldivmod.o)
 .bss           0x00000000        0x0 d:/keil_v5/os/rtthread/env-windows-v1.3.5/tools/gnu_gcc/arm_gcc/mingw/bin/../lib/gcc/arm-none-eabi/10.3.1/thumb/v7e-m+fp/hard\libgcc.a(_aeabi_ldivmod.o)
 .debug_frame   0x00000000       0x44 d:/keil_v5/os/rtthread/env-windows-v1.3.5/tools/gnu_gcc/arm_gcc/mingw/bin/../lib/gcc/arm-none-eabi/10.3.1/thumb/v7e-m+fp/hard\libgcc.a(_aeabi_ldivmod.o)
 .ARM.attributes
                0x00000000       0x1e d:/keil_v5/os/rtthread/env-windows-v1.3.5/tools/gnu_gcc/arm_gcc/mingw/bin/../lib/gcc/arm-none-eabi/10.3.1/thumb/v7e-m+fp/hard\libgcc.a(_aeabi_ldivmod.o)
 .text          0x00000000      0x2d0 d:/keil_v5/os/rtthread/env-windows-v1.3.5/tools/gnu_gcc/arm_gcc/mingw/bin/../lib/gcc/arm-none-eabi/10.3.1/thumb/v7e-m+fp/hard\libgcc.a(_udivmoddi4.o)
 .data          0x00000000        0x0 d:/keil_v5/os/rtthread/env-windows-v1.3.5/tools/gnu_gcc/arm_gcc/mingw/bin/../lib/gcc/arm-none-eabi/10.3.1/thumb/v7e-m+fp/hard\libgcc.a(_udivmoddi4.o)
 .bss           0x00000000        0x0 d:/keil_v5/os/rtthread/env-windows-v1.3.5/tools/gnu_gcc/arm_gcc/mingw/bin/../lib/gcc/arm-none-eabi/10.3.1/thumb/v7e-m+fp/hard\libgcc.a(_udivmoddi4.o)
 .ARM.extab     0x00000000        0x0 d:/keil_v5/os/rtthread/env-windows-v1.3.5/tools/gnu_gcc/arm_gcc/mingw/bin/../lib/gcc/arm-none-eabi/10.3.1/thumb/v7e-m+fp/hard\libgcc.a(_udivmoddi4.o)
 .ARM.exidx     0x00000000        0x8 d:/keil_v5/os/rtthread/env-windows-v1.3.5/tools/gnu_gcc/arm_gcc/mingw/bin/../lib/gcc/arm-none-eabi/10.3.1/thumb/v7e-m+fp/hard\libgcc.a(_udivmoddi4.o)
 .debug_frame   0x00000000       0x34 d:/keil_v5/os/rtthread/env-windows-v1.3.5/tools/gnu_gcc/arm_gcc/mingw/bin/../lib/gcc/arm-none-eabi/10.3.1/thumb/v7e-m+fp/hard\libgcc.a(_udivmoddi4.o)
 .ARM.attributes
                0x00000000       0x34 d:/keil_v5/os/rtthread/env-windows-v1.3.5/tools/gnu_gcc/arm_gcc/mingw/bin/../lib/gcc/arm-none-eabi/10.3.1/thumb/v7e-m+fp/hard\libgcc.a(_udivmoddi4.o)
 .text          0x00000000        0x4 d:/keil_v5/os/rtthread/env-windows-v1.3.5/tools/gnu_gcc/arm_gcc/mingw/bin/../lib/gcc/arm-none-eabi/10.3.1/thumb/v7e-m+fp/hard\libgcc.a(_dvmd_tls.o)
 .data          0x00000000        0x0 d:/keil_v5/os/rtthread/env-windows-v1.3.5/tools/gnu_gcc/arm_gcc/mingw/bin/../lib/gcc/arm-none-eabi/10.3.1/thumb/v7e-m+fp/hard\libgcc.a(_dvmd_tls.o)
 .bss           0x00000000        0x0 d:/keil_v5/os/rtthread/env-windows-v1.3.5/tools/gnu_gcc/arm_gcc/mingw/bin/../lib/gcc/arm-none-eabi/10.3.1/thumb/v7e-m+fp/hard\libgcc.a(_dvmd_tls.o)
 .ARM.attributes
                0x00000000       0x1e d:/keil_v5/os/rtthread/env-windows-v1.3.5/tools/gnu_gcc/arm_gcc/mingw/bin/../lib/gcc/arm-none-eabi/10.3.1/thumb/v7e-m+fp/hard\libgcc.a(_dvmd_tls.o)
 .text          0x00000000        0x0 d:/keil_v5/os/rtthread/env-windows-v1.3.5/tools/gnu_gcc/arm_gcc/mingw/bin/../lib/gcc/arm-none-eabi/10.3.1/thumb/v7e-m+fp/hard/crtend.o
 .data          0x00000000        0x0 d:/keil_v5/os/rtthread/env-windows-v1.3.5/tools/gnu_gcc/arm_gcc/mingw/bin/../lib/gcc/arm-none-eabi/10.3.1/thumb/v7e-m+fp/hard/crtend.o
 .bss           0x00000000        0x0 d:/keil_v5/os/rtthread/env-windows-v1.3.5/tools/gnu_gcc/arm_gcc/mingw/bin/../lib/gcc/arm-none-eabi/10.3.1/thumb/v7e-m+fp/hard/crtend.o
 .rodata        0x00000000       0x24 d:/keil_v5/os/rtthread/env-windows-v1.3.5/tools/gnu_gcc/arm_gcc/mingw/bin/../lib/gcc/arm-none-eabi/10.3.1/thumb/v7e-m+fp/hard/crtend.o
 .eh_frame      0x00000000        0x4 d:/keil_v5/os/rtthread/env-windows-v1.3.5/tools/gnu_gcc/arm_gcc/mingw/bin/../lib/gcc/arm-none-eabi/10.3.1/thumb/v7e-m+fp/hard/crtend.o
 .ARM.attributes
                0x00000000       0x34 d:/keil_v5/os/rtthread/env-windows-v1.3.5/tools/gnu_gcc/arm_gcc/mingw/bin/../lib/gcc/arm-none-eabi/10.3.1/thumb/v7e-m+fp/hard/crtend.o
 .text          0x00000000        0x0 d:/keil_v5/os/rtthread/env-windows-v1.3.5/tools/gnu_gcc/arm_gcc/mingw/bin/../lib/gcc/arm-none-eabi/10.3.1/thumb/v7e-m+fp/hard/crtn.o
 .data          0x00000000        0x0 d:/keil_v5/os/rtthread/env-windows-v1.3.5/tools/gnu_gcc/arm_gcc/mingw/bin/../lib/gcc/arm-none-eabi/10.3.1/thumb/v7e-m+fp/hard/crtn.o
 .bss           0x00000000        0x0 d:/keil_v5/os/rtthread/env-windows-v1.3.5/tools/gnu_gcc/arm_gcc/mingw/bin/../lib/gcc/arm-none-eabi/10.3.1/thumb/v7e-m+fp/hard/crtn.o
 .init          0x00000000        0x8 d:/keil_v5/os/rtthread/env-windows-v1.3.5/tools/gnu_gcc/arm_gcc/mingw/bin/../lib/gcc/arm-none-eabi/10.3.1/thumb/v7e-m+fp/hard/crtn.o
 .fini          0x00000000        0x8 d:/keil_v5/os/rtthread/env-windows-v1.3.5/tools/gnu_gcc/arm_gcc/mingw/bin/../lib/gcc/arm-none-eabi/10.3.1/thumb/v7e-m+fp/hard/crtn.o
 .ARM.attributes
                0x00000000       0x1e d:/keil_v5/os/rtthread/env-windows-v1.3.5/tools/gnu_gcc/arm_gcc/mingw/bin/../lib/gcc/arm-none-eabi/10.3.1/thumb/v7e-m+fp/hard/crtn.o

Memory Configuration

Name             Origin             Length             Attributes
CODE             0x08000000         0x00080000         xr
DATA             0x20000000         0x00010000         rw
*default*        0x00000000         0xffffffff

Linker script and memory map

LOAD d:/keil_v5/os/rtthread/env-windows-v1.3.5/tools/gnu_gcc/arm_gcc/mingw/bin/../lib/gcc/arm-none-eabi/10.3.1/thumb/v7e-m+fp/hard/crti.o
LOAD d:/keil_v5/os/rtthread/env-windows-v1.3.5/tools/gnu_gcc/arm_gcc/mingw/bin/../lib/gcc/arm-none-eabi/10.3.1/thumb/v7e-m+fp/hard/crtbegin.o
LOAD d:/keil_v5/os/rtthread/env-windows-v1.3.5/tools/gnu_gcc/arm_gcc/mingw/bin/../lib/gcc/arm-none-eabi/10.3.1/../../../../arm-none-eabi/lib/thumb/v7e-m+fp/hard/crt0.o
LOAD build\applications\rs232_link.o
LOAD build\applications\main.o
LOAD libraries\GD32F30x_Firmware_Library\CMSIS\GD\GD32F30x\Source\GCC\startup_gd32f30x_hd.o
LOAD build\board\board.o
LOAD build\packages\ad7190\ad7190.o
LOAD build\packages\ad983x\ad983x.o
LOAD build\packages\cobs\cobs.o
LOAD build\packages\dac7811\dac7811.o
LOAD build\kernel\src\mem.o
LOAD build\kernel\src\thread.o
LOAD build\kernel\src\object.o
LOAD build\kernel\src\timer.o
LOAD build\kernel\src\idle.o
LOAD build\kernel\src\components.o
LOAD build\kernel\src\device.o
LOAD build\kernel\src\mempool.o
LOAD build\kernel\src\scheduler.o
LOAD build\kernel\src\ipc.o
LOAD build\kernel\src\clock.o
LOAD build\kernel\src\irq.o
LOAD build\kernel\src\kservice.o
LOAD build\kernel\libcpu\arm\common\div0.o
LOAD build\kernel\libcpu\arm\common\showmem.o
LOAD build\kernel\libcpu\arm\common\backtrace.o
LOAD build\kernel\libcpu\arm\cortex-m4\context_gcc.o
LOAD build\kernel\libcpu\arm\cortex-m4\cpuport.o
LOAD build\kernel\components\finsh\shell.o
LOAD build\kernel\components\finsh\msh.o
LOAD build\kernel\components\finsh\cmd.o
LOAD build\kernel\components\libc\compilers\common\stdlib.o
LOAD build\kernel\components\libc\compilers\common\time.o
LOAD build\kernel\components\libc\compilers\newlib\syscalls.o
LOAD build\kernel\components\utilities\ulog\ulog.o
LOAD build\kernel\components\utilities\ulog\backend\console_be.o
LOAD libraries\GD32F30x_Firmware_Library\CMSIS\GD\GD32F30x\Source\system_gd32f30x.o
LOAD libraries\GD32F30x_Firmware_Library\GD32F30x_standard_peripheral\Source\gd32f30x_rcu.o
LOAD libraries\GD32F30x_Firmware_Library\GD32F30x_standard_peripheral\Source\gd32f30x_dma.o
LOAD libraries\GD32F30x_Firmware_Library\GD32F30x_standard_peripheral\Source\gd32f30x_usart.o
LOAD libraries\GD32F30x_Firmware_Library\GD32F30x_standard_peripheral\Source\gd32f30x_exti.o
LOAD libraries\GD32F30x_Firmware_Library\GD32F30x_standard_peripheral\Source\gd32f30x_gpio.o
LOAD libraries\GD32F30x_Firmware_Library\GD32F30x_standard_peripheral\Source\gd32f30x_misc.o
LOAD libraries\GD32F30x_Firmware_Library\GD32F30x_standard_peripheral\Source\gd32f30x_spi.o
LOAD libraries\gd32_drivers\drv_gpio.o
LOAD libraries\gd32_drivers\drv_soft_spi.o
LOAD libraries\gd32_drivers\drv_usart.o
LOAD libraries\gd32_drivers\drv_spi.o
LOAD build\kernel\components\drivers\ipc\pipe.o
LOAD build\kernel\components\drivers\ipc\dataqueue.o
LOAD build\kernel\components\drivers\ipc\waitqueue.o
LOAD build\kernel\components\drivers\ipc\workqueue.o
LOAD build\kernel\components\drivers\ipc\ringbuffer.o
LOAD build\kernel\components\drivers\ipc\ringblk_buf.o
LOAD build\kernel\components\drivers\ipc\completion.o
LOAD build\kernel\components\drivers\misc\pin.o
LOAD build\kernel\components\drivers\serial\serial.o
LOAD build\kernel\components\drivers\spi\spi_core.o
LOAD build\kernel\components\drivers\spi\spi_dev.o
LOAD build\kernel\components\drivers\spi\spi-bit-ops.o
LOAD d:/keil_v5/os/rtthread/env-windows-v1.3.5/tools/gnu_gcc/arm_gcc/mingw/bin/../lib/gcc/arm-none-eabi/10.3.1/../../../../arm-none-eabi/lib/thumb/v7e-m+fp/hard\libm.a
LOAD d:/keil_v5/os/rtthread/env-windows-v1.3.5/tools/gnu_gcc/arm_gcc/mingw/bin/../lib/gcc/arm-none-eabi/10.3.1/../../../../arm-none-eabi/lib/thumb/v7e-m+fp/hard\libc.a
START GROUP
LOAD d:/keil_v5/os/rtthread/env-windows-v1.3.5/tools/gnu_gcc/arm_gcc/mingw/bin/../lib/gcc/arm-none-eabi/10.3.1/thumb/v7e-m+fp/hard\libgcc.a
LOAD d:/keil_v5/os/rtthread/env-windows-v1.3.5/tools/gnu_gcc/arm_gcc/mingw/bin/../lib/gcc/arm-none-eabi/10.3.1/../../../../arm-none-eabi/lib/thumb/v7e-m+fp/hard\libc.a
END GROUP
LOAD d:/keil_v5/os/rtthread/env-windows-v1.3.5/tools/gnu_gcc/arm_gcc/mingw/bin/../lib/gcc/arm-none-eabi/10.3.1/thumb/v7e-m+fp/hard/crtend.o
LOAD d:/keil_v5/os/rtthread/env-windows-v1.3.5/tools/gnu_gcc/arm_gcc/mingw/bin/../lib/gcc/arm-none-eabi/10.3.1/thumb/v7e-m+fp/hard/crtn.o
                0x00000200                _system_stack_size = 0x200

.text           0x08000000    0x126c8
                0x08000000                . = ALIGN (0x4)
                0x08000000                _stext = .
 *(.isr_vector)
 .isr_vector    0x08000000      0x130 libraries\GD32F30x_Firmware_Library\CMSIS\GD\GD32F30x\Source\GCC\startup_gd32f30x_hd.o
                0x08000000                g_pfnVectors
                0x08000130                . = ALIGN (0x4)
 *(.text)
 .text          0x08000130      0x13c build\kernel\libcpu\arm\cortex-m4\context_gcc.o
                0x08000130                rt_hw_interrupt_disable
                0x08000138                rt_hw_interrupt_enable
                0x0800013e                rt_hw_context_switch_interrupt
                0x0800013e                rt_hw_context_switch
                0x0800015e                PendSV_Handler
                0x080001ca                rt_hw_context_switch_to
                0x08000210                rt_hw_interrupt_thread_switch
                0x08000214                HardFault_Handler
 *fill*         0x0800026c       0x14 00000000
 .text          0x08000280       0xdc d:/keil_v5/os/rtthread/env-windows-v1.3.5/tools/gnu_gcc/arm_gcc/mingw/bin/../lib/gcc/arm-none-eabi/10.3.1/../../../../arm-none-eabi/lib/thumb/v7e-m+fp/hard\libc.a(lib_a-strlen.o)
                0x08000280                strlen
 .text          0x0800035c      0x424 d:/keil_v5/os/rtthread/env-windows-v1.3.5/tools/gnu_gcc/arm_gcc/mingw/bin/../lib/gcc/arm-none-eabi/10.3.1/thumb/v7e-m+fp/hard\libgcc.a(_arm_muldivdf3.o)
                0x0800035c                __aeabi_dmul
                0x0800035c                __muldf3
                0x080005b0                __divdf3
                0x080005b0                __aeabi_ddiv
 .text          0x08000780       0x40 d:/keil_v5/os/rtthread/env-windows-v1.3.5/tools/gnu_gcc/arm_gcc/mingw/bin/../lib/gcc/arm-none-eabi/10.3.1/thumb/v7e-m+fp/hard\libgcc.a(_arm_fixunsdfsi.o)
                0x08000780                __aeabi_d2uiz
                0x08000780                __fixunsdfsi
 *(.text.*)
 .text.unpack_uint8
                0x080007c0       0x2c build\applications\rs232_link.o
 .text.unpack_uint16
                0x080007ec       0x3e build\applications\rs232_link.o
 .text.unpack_uint32
                0x0800082a       0x62 build\applications\rs232_link.o
 .text.uart_rx_ind
                0x0800088c       0x20 build\applications\rs232_link.o
 .text.uart_tx_cmplt
                0x080008ac       0x20 build\applications\rs232_link.o
 .text.rs232_process_frame
                0x080008cc      0x12c build\applications\rs232_link.o
 .text.rs232_rx_thread_entry
                0x080009f8       0x60 build\applications\rs232_link.o
 .text.rs232_tx_thread_entry
                0x08000a58       0x70 build\applications\rs232_link.o
 .text.rs232_link
                0x08000ac8      0x150 build\applications\rs232_link.o
 .text.main     0x08000c18       0x48 build\applications\main.o
                0x08000c18                main
 .text.Reset_Handler
                0x08000c60       0x50 libraries\GD32F30x_Firmware_Library\CMSIS\GD\GD32F30x\Source\GCC\startup_gd32f30x_hd.o
                0x08000c60                Reset_Handler
                0x08000c8a                NMI_Handler
                0x08000c8c                MemManage_Handler
                0x08000c8e                BusFault_Handler
                0x08000c90                UsageFault_Handler
                0x08000c92                SVC_Handler
                0x08000c94                DebugMon_Handler
 .text.Default_Handler
                0x08000cb0        0x2 libraries\GD32F30x_Firmware_Library\CMSIS\GD\GD32F30x\Source\GCC\startup_gd32f30x_hd.o
                0x08000cb0                RTC_Alarm_IRQHandler
                0x08000cb0                TIMER2_IRQHandler
                0x08000cb0                TIMER5_IRQHandler
                0x08000cb0                LVD_IRQHandler
                0x08000cb0                TIMER0_BRK_IRQHandler
                0x08000cb0                ADC0_1_IRQHandler
                0x08000cb0                TIMER0_UP_IRQHandler
                0x08000cb0                SDIO_IRQHandler
                0x08000cb0                TIMER3_IRQHandler
                0x08000cb0                DMA0_Channel6_IRQHandler
                0x08000cb0                I2C0_EV_IRQHandler
                0x08000cb0                TIMER4_IRQHandler
                0x08000cb0                SPI1_IRQHandler
                0x08000cb0                DMA0_Channel0_IRQHandler
                0x08000cb0                TAMPER_IRQHandler
                0x08000cb0                DMA1_Channel0_IRQHandler
                0x08000cb0                TIMER6_IRQHandler
                0x08000cb0                I2C0_ER_IRQHandler
                0x08000cb0                RTC_IRQHandler
                0x08000cb0                TIMER7_UP_IRQHandler
                0x08000cb0                DMA0_Channel2_IRQHandler
                0x08000cb0                TIMER1_IRQHandler
                0x08000cb0                TIMER7_TRG_CMT_IRQHandler
                0x08000cb0                TIMER0_TRG_CMT_IRQHandler
                0x08000cb0                I2C1_EV_IRQHandler
                0x08000cb0                UART4_IRQHandler
                0x08000cb0                DMA1_Channel1_IRQHandler
                0x08000cb0                Default_Handler
                0x08000cb0                TIMER7_Channel_IRQHandler
                0x08000cb0                WWDGT_IRQHandler
                0x08000cb0                EXMC_IRQHandler
                0x08000cb0                ADC2_IRQHandler
                0x08000cb0                SPI2_IRQHandler
                0x08000cb0                USBD_WKUP_IRQHandler
                0x08000cb0                RCU_CTC_IRQHandler
                0x08000cb0                TIMER7_BRK_IRQHandler
                0x08000cb0                USBD_HP_CAN0_TX_IRQHandler
                0x08000cb0                CAN0_RX1_IRQHandler
                0x08000cb0                DMA0_Channel5_IRQHandler
                0x08000cb0                DMA0_Channel1_IRQHandler
                0x08000cb0                TIMER0_Channel_IRQHandler
                0x08000cb0                SPI0_IRQHandler
                0x08000cb0                DMA1_Channel3_4_IRQHandler
                0x08000cb0                USART2_IRQHandler
                0x08000cb0                CAN0_EWMC_IRQHandler
                0x08000cb0                DMA1_Channel2_IRQHandler
                0x08000cb0                USBD_LP_CAN0_RX0_IRQHandler
                0x08000cb0                USART1_IRQHandler
                0x08000cb0                UART3_IRQHandler
                0x08000cb0                I2C1_ER_IRQHandler
                0x08000cb0                FMC_IRQHandler
 *fill*         0x08000cb2        0x2 00000000
 .text.NVIC_SetPriority
                0x08000cb4       0x54 build\board\board.o
 .text.SysTick_Config
                0x08000d08       0x44 build\board\board.o
 .text.SystemClock_Config
                0x08000d4c       0x2c build\board\board.o
                0x08000d4c                SystemClock_Config
 .text.SysTick_Handler
                0x08000d78       0x14 build\board\board.o
                0x08000d78                SysTick_Handler
 .text.rt_hw_board_init
                0x08000d8c      0x138 build\board\board.o
                0x08000d8c                rt_hw_board_init
 .text.rt_spi_send
                0x08000ec4       0x22 build\packages\ad7190\ad7190.o
 *fill*         0x08000ee6        0x2 00000000
 .text.ad7190_hw_init
                0x08000ee8       0x80 build\packages\ad7190\ad7190.o
 .text.ad9710_set_drdy_it
                0x08000f68       0x12 build\packages\ad7190\ad7190.o
 .text.ad9710_set_drdy_spi
                0x08000f7a       0x12 build\packages\ad7190\ad7190.o
 .text.gpio_udelay
                0x08000f8c       0x30 build\packages\ad7190\ad7190.o
 .text.ad7190_read_spi
                0x08000fbc       0x90 build\packages\ad7190\ad7190.o
                0x08000fbc                ad7190_read_spi
 .text.ad7190_read_adc
                0x0800104c       0x70 build\packages\ad7190\ad7190.o
 .text.ad7190_init
                0x080010bc      0x158 build\packages\ad7190\ad7190.o
 .text.rt_spi_send
                0x08001214       0x22 build\packages\ad983x\ad983x.o
 *fill*         0x08001236        0x2 00000000
 .text.AD983X_SetRegisterValue
                0x08001238       0x4c build\packages\ad983x\ad983x.o
                0x08001238                AD983X_SetRegisterValue
 *fill*         0x08001284        0x4 00000000
 .text.freq_2_reg
                0x08001288       0x4c build\packages\ad983x\ad983x.o
                0x08001288                freq_2_reg
 .text.ad983x_set_frequency
                0x080012d4       0x5a build\packages\ad983x\ad983x.o
                0x080012d4                ad983x_set_frequency
 .text.ad983x_set_phase
                0x0800132e       0x32 build\packages\ad983x\ad983x.o
                0x0800132e                ad983x_set_phase
 .text.ad983x_hw_init
                0x08001360       0xa0 build\packages\ad983x\ad983x.o
 .text.ad983x_init
                0x08001400       0xe0 build\packages\ad983x\ad983x.o
 .text.cobs_crc_reset
                0x080014e0       0x20 build\packages\cobs\cobs.o
 .text.cobs_crc_get
                0x08001500       0x28 build\packages\cobs\cobs.o
 .text.cobs_crc_one_byte
                0x08001528       0x48 build\packages\cobs\cobs.o
 .text.cobs_decode_one_byte
                0x08001570       0x30 build\packages\cobs\cobs.o
 .text.cobs_decode_reset
                0x080015a0       0x30 build\packages\cobs\cobs.o
 .text.cobs_decode_init
                0x080015d0       0x1e build\packages\cobs\cobs.o
                0x080015d0                cobs_decode_init
 .text.cobs_decode_frame
                0x080015ee       0xec build\packages\cobs\cobs.o
                0x080015ee                cobs_decode_frame
 .text.cobs_encode_reset
                0x080016da       0x36 build\packages\cobs\cobs.o
                0x080016da                cobs_encode_reset
 .text.cobs_encode_end_block
                0x08001710       0x3e build\packages\cobs\cobs.o
 *fill*         0x0800174e        0x2 00000000
 .text.cobs_encode_frame
                0x08001750       0xb8 build\packages\cobs\cobs.o
                0x08001750                cobs_encode_frame
 .text.cobs_encode_end_frame
                0x08001808       0x4e build\packages\cobs\cobs.o
                0x08001808                cobs_encode_end_frame
 *fill*         0x08001856        0x2 00000000
 .text.dac7811_hw_init
                0x08001858       0x58 build\packages\dac7811\dac7811.o
 .text.dac7811_set_shift_reg
                0x080018b0       0x64 build\packages\dac7811\dac7811.o
                0x080018b0                dac7811_set_shift_reg
 .text.ad7811_init
                0x08001914       0x18 build\packages\dac7811\dac7811.o
 .text.dac7811_set
                0x0800192c       0xb4 build\packages\dac7811\dac7811.o
 .text.plug_holes
                0x080019e0       0xf8 build\kernel\src\mem.o
 .text.rt_smem_init
                0x08001ad8      0x104 build\kernel\src\mem.o
                0x08001ad8                rt_smem_init
 .text.rt_smem_alloc
                0x08001bdc      0x268 build\kernel\src\mem.o
                0x08001bdc                rt_smem_alloc
 .text.rt_smem_free
                0x08001e44      0x140 build\kernel\src\mem.o
                0x08001e44                rt_smem_free
 .text.rt_list_init
                0x08001f84       0x22 build\kernel\src\thread.o
 .text.rt_list_remove
                0x08001fa6       0x36 build\kernel\src\thread.o
 .text._thread_exit
                0x08001fdc       0x42 build\kernel\src\thread.o
 *fill*         0x0800201e        0x2 00000000
 .text._thread_timeout
                0x08002020       0x8c build\kernel\src\thread.o
 .text._thread_init
                0x080020ac       0xfc build\kernel\src\thread.o
 .text.rt_thread_init
                0x080021a8       0x70 build\kernel\src\thread.o
                0x080021a8                rt_thread_init
 .text.rt_thread_self
                0x08002218       0x18 build\kernel\src\thread.o
                0x08002218                rt_thread_self
 .text.rt_thread_startup
                0x08002230       0x94 build\kernel\src\thread.o
                0x08002230                rt_thread_startup
 .text.rt_thread_detach
                0x080022c4       0xb0 build\kernel\src\thread.o
                0x080022c4                rt_thread_detach
 .text.rt_thread_create
                0x08002374       0x62 build\kernel\src\thread.o
                0x08002374                rt_thread_create
 *fill*         0x080023d6        0x2 00000000
 .text.rt_thread_delete
                0x080023d8       0xb0 build\kernel\src\thread.o
                0x080023d8                rt_thread_delete
 .text.rt_thread_sleep
                0x08002488       0x94 build\kernel\src\thread.o
                0x08002488                rt_thread_sleep
 .text.rt_thread_mdelay
                0x0800251c       0x20 build\kernel\src\thread.o
                0x0800251c                rt_thread_mdelay
 .text.rt_thread_control
                0x0800253c       0xfc build\kernel\src\thread.o
                0x0800253c                rt_thread_control
 .text.rt_thread_suspend
                0x08002638       0xc8 build\kernel\src\thread.o
                0x08002638                rt_thread_suspend
 .text.rt_thread_resume
                0x08002700       0x98 build\kernel\src\thread.o
                0x08002700                rt_thread_resume
 .text.rt_list_insert_after
                0x08002798       0x32 build\kernel\src\object.o
 .text.rt_list_remove
                0x080027ca       0x36 build\kernel\src\object.o
 .text.rt_object_get_information
                0x08002800       0x48 build\kernel\src\object.o
                0x08002800                rt_object_get_information
 .text.rt_object_init
                0x08002848       0xcc build\kernel\src\object.o
                0x08002848                rt_object_init
 .text.rt_object_detach
                0x08002914       0x5c build\kernel\src\object.o
                0x08002914                rt_object_detach
 .text.rt_object_allocate
                0x08002970       0xd8 build\kernel\src\object.o
                0x08002970                rt_object_allocate
 .text.rt_object_delete
                0x08002a48       0x7c build\kernel\src\object.o
                0x08002a48                rt_object_delete
 .text.rt_object_is_systemobject
                0x08002ac4       0x3c build\kernel\src\object.o
                0x08002ac4                rt_object_is_systemobject
 .text.rt_object_get_type
                0x08002b00       0x34 build\kernel\src\object.o
                0x08002b00                rt_object_get_type
 .text.rt_object_find
                0x08002b34       0xb4 build\kernel\src\object.o
                0x08002b34                rt_object_find
 .text.rt_list_init
                0x08002be8       0x22 build\kernel\src\timer.o
 .text.rt_list_insert_after
                0x08002c0a       0x32 build\kernel\src\timer.o
 .text.rt_list_remove
                0x08002c3c       0x36 build\kernel\src\timer.o
 .text.rt_list_isempty
                0x08002c72       0x24 build\kernel\src\timer.o
 .text._timer_init
                0x08002c96       0x6a build\kernel\src\timer.o
 .text._timer_remove
                0x08002d00       0x36 build\kernel\src\timer.o
 *fill*         0x08002d36        0x2 00000000
 .text.rt_timer_init
                0x08002d38       0x7c build\kernel\src\timer.o
                0x08002d38                rt_timer_init
 .text.rt_timer_detach
                0x08002db4       0x90 build\kernel\src\timer.o
                0x08002db4                rt_timer_detach
 .text.rt_timer_start
                0x08002e44      0x1d0 build\kernel\src\timer.o
                0x08002e44                rt_timer_start
 .text.rt_timer_stop
                0x08003014       0x94 build\kernel\src\timer.o
                0x08003014                rt_timer_stop
 .text.rt_timer_control
                0x080030a8       0xf8 build\kernel\src\timer.o
                0x080030a8                rt_timer_control
 .text.rt_timer_check
                0x080031a0      0x108 build\kernel\src\timer.o
                0x080031a0                rt_timer_check
 .text.rt_system_timer_init
                0x080032a8       0x34 build\kernel\src\timer.o
                0x080032a8                rt_system_timer_init
 .text.rt_system_timer_thread_init
                0x080032dc        0xe build\kernel\src\timer.o
                0x080032dc                rt_system_timer_thread_init
 .text.rt_list_insert_after
                0x080032ea       0x32 build\kernel\src\idle.o
 .text.rt_list_remove
                0x0800331c       0x36 build\kernel\src\idle.o
 *fill*         0x08003352        0x2 00000000
 .text.rt_thread_defunct_enqueue
                0x08003354       0x20 build\kernel\src\idle.o
                0x08003354                rt_thread_defunct_enqueue
 .text.rt_thread_defunct_dequeue
                0x08003374       0x44 build\kernel\src\idle.o
                0x08003374                rt_thread_defunct_dequeue
 .text.rt_defunct_execute
                0x080033b8       0x54 build\kernel\src\idle.o
 .text.rt_thread_idle_entry
                0x0800340c       0x38 build\kernel\src\idle.o
 .text.rt_thread_idle_init
                0x08003444       0x78 build\kernel\src\idle.o
                0x08003444                rt_thread_idle_init
 .text.rti_start
                0x080034bc       0x10 build\kernel\src\components.o
 .text.rti_board_start
                0x080034cc       0x10 build\kernel\src\components.o
 .text.rti_board_end
                0x080034dc       0x10 build\kernel\src\components.o
 .text.rti_end  0x080034ec       0x10 build\kernel\src\components.o
 .text.rt_components_board_init
                0x080034fc       0x34 build\kernel\src\components.o
                0x080034fc                rt_components_board_init
 .text.rt_components_init
                0x08003530       0x34 build\kernel\src\components.o
                0x08003530                rt_components_init
 .text.entry    0x08003564        0xe build\kernel\src\components.o
                0x08003564                entry
 .text.main_thread_entry
                0x08003572       0x18 build\kernel\src\components.o
                0x08003572                main_thread_entry
 *fill*         0x0800358a        0x2 00000000
 .text.rt_application_init
                0x0800358c       0x4c build\kernel\src\components.o
                0x0800358c                rt_application_init
 .text.rtthread_startup
                0x080035d8       0x2e build\kernel\src\components.o
                0x080035d8                rtthread_startup
 .text.rt_device_register
                0x08003606       0x54 build\kernel\src\device.o
                0x08003606                rt_device_register
 .text.rt_device_find
                0x0800365a       0x1a build\kernel\src\device.o
                0x0800365a                rt_device_find
 .text.rt_device_open
                0x08003674      0x108 build\kernel\src\device.o
                0x08003674                rt_device_open
 .text.rt_device_close
                0x0800377c       0x9c build\kernel\src\device.o
                0x0800377c                rt_device_close
 .text.rt_device_read
                0x08003818       0x88 build\kernel\src\device.o
                0x08003818                rt_device_read
 .text.rt_device_write
                0x080038a0       0x88 build\kernel\src\device.o
                0x080038a0                rt_device_write
 .text.rt_device_control
                0x08003928       0x68 build\kernel\src\device.o
                0x08003928                rt_device_control
 .text.rt_device_set_rx_indicate
                0x08003990       0x54 build\kernel\src\device.o
                0x08003990                rt_device_set_rx_indicate
 .text.rt_device_set_tx_complete
                0x080039e4       0x54 build\kernel\src\device.o
                0x080039e4                rt_device_set_tx_complete
 .text.rt_list_init
                0x08003a38       0x22 build\kernel\src\scheduler.o
 .text.rt_list_insert_before
                0x08003a5a       0x32 build\kernel\src\scheduler.o
 .text.rt_list_remove
                0x08003a8c       0x36 build\kernel\src\scheduler.o
 .text.rt_list_isempty
                0x08003ac2       0x24 build\kernel\src\scheduler.o
 *fill*         0x08003ae6        0x2 00000000
 .text._rt_scheduler_stack_check
                0x08003ae8       0x94 build\kernel\src\scheduler.o
 .text._scheduler_get_highest_priority_thread
                0x08003b7c       0x38 build\kernel\src\scheduler.o
 .text.rt_system_scheduler_init
                0x08003bb4       0x38 build\kernel\src\scheduler.o
                0x08003bb4                rt_system_scheduler_init
 .text.rt_system_scheduler_start
                0x08003bec       0x38 build\kernel\src\scheduler.o
                0x08003bec                rt_system_scheduler_start
 .text.rt_schedule
                0x08003c24      0x19c build\kernel\src\scheduler.o
                0x08003c24                rt_schedule
 .text.rt_schedule_insert_thread
                0x08003dc0       0xac build\kernel\src\scheduler.o
                0x08003dc0                rt_schedule_insert_thread
 .text.rt_schedule_remove_thread
                0x08003e6c       0x70 build\kernel\src\scheduler.o
                0x08003e6c                rt_schedule_remove_thread
 .text.rt_enter_critical
                0x08003edc       0x2c build\kernel\src\scheduler.o
                0x08003edc                rt_enter_critical
 .text.rt_exit_critical
                0x08003f08       0x54 build\kernel\src\scheduler.o
                0x08003f08                rt_exit_critical
 .text.rt_critical_level
                0x08003f5c       0x1c build\kernel\src\scheduler.o
                0x08003f5c                rt_critical_level
 .text.rt_list_init
                0x08003f78       0x22 build\kernel\src\ipc.o
 .text.rt_list_insert_before
                0x08003f9a       0x32 build\kernel\src\ipc.o
 .text.rt_list_isempty
                0x08003fcc       0x24 build\kernel\src\ipc.o
 .text._ipc_object_init
                0x08003ff0       0x1c build\kernel\src\ipc.o
 .text._ipc_list_suspend
                0x0800400c       0xa4 build\kernel\src\ipc.o
 .text._ipc_list_resume
                0x080040b0       0x20 build\kernel\src\ipc.o
 .text._ipc_list_resume_all
                0x080040d0       0x46 build\kernel\src\ipc.o
 *fill*         0x08004116        0x2 00000000
 .text.rt_sem_init
                0x08004118       0x88 build\kernel\src\ipc.o
                0x08004118                rt_sem_init
 .text.rt_sem_take
                0x080041a0      0x190 build\kernel\src\ipc.o
                0x080041a0                rt_sem_take
 .text.rt_sem_trytake
                0x08004330       0x1a build\kernel\src\ipc.o
                0x08004330                rt_sem_trytake
 *fill*         0x0800434a        0x2 00000000
 .text.rt_sem_release
                0x0800434c       0xbc build\kernel\src\ipc.o
                0x0800434c                rt_sem_release
 .text.rt_sem_control
                0x08004408       0x84 build\kernel\src\ipc.o
                0x08004408                rt_sem_control
 .text.rt_mutex_init
                0x0800448c       0x64 build\kernel\src\ipc.o
                0x0800448c                rt_mutex_init
 .text.rt_mutex_take
                0x080044f0      0x21c build\kernel\src\ipc.o
                0x080044f0                rt_mutex_take
 .text.rt_mutex_release
                0x0800470c      0x1bc build\kernel\src\ipc.o
                0x0800470c                rt_mutex_release
 .text.rt_mq_init
                0x080048c8       0xec build\kernel\src\ipc.o
                0x080048c8                rt_mq_init
 .text.rt_mq_recv
                0x080049b4      0x2c0 build\kernel\src\ipc.o
                0x080049b4                rt_mq_recv
 .text.rt_tick_get
                0x08004c74       0x18 build\kernel\src\clock.o
                0x08004c74                rt_tick_get
 .text.rt_tick_increase
                0x08004c8c       0x7c build\kernel\src\clock.o
                0x08004c8c                rt_tick_increase
 .text.rt_tick_from_millisecond
                0x08004d08       0x74 build\kernel\src\clock.o
                0x08004d08                rt_tick_from_millisecond
 .text.rt_interrupt_enter
                0x08004d7c       0x40 build\kernel\src\irq.o
                0x08004d7c                rt_interrupt_enter
 .text.rt_interrupt_leave
                0x08004dbc       0x40 build\kernel\src\irq.o
                0x08004dbc                rt_interrupt_leave
 .text.rt_interrupt_get_nest
                0x08004dfc       0x28 build\kernel\src\irq.o
                0x08004dfc                rt_interrupt_get_nest
 .text.rt_set_errno
                0x08004e24       0x40 build\kernel\src\kservice.o
                0x08004e24                rt_set_errno
 .text._rt_errno
                0x08004e64       0x34 build\kernel\src\kservice.o
                0x08004e64                _rt_errno
 .text.rt_memset
                0x08004e98       0xb6 build\kernel\src\kservice.o
                0x08004e98                rt_memset
 .text.rt_memcpy
                0x08004f4e       0xd2 build\kernel\src\kservice.o
                0x08004f4e                rt_memcpy
 .text.rt_memmove
                0x08005020       0x82 build\kernel\src\kservice.o
                0x08005020                rt_memmove
 .text.rt_strncpy
                0x080050a2       0x64 build\kernel\src\kservice.o
                0x080050a2                rt_strncpy
 .text.rt_strncmp
                0x08005106       0x4a build\kernel\src\kservice.o
                0x08005106                rt_strncmp
 .text.rt_strlen
                0x08005150       0x2e build\kernel\src\kservice.o
                0x08005150                rt_strlen
 *fill*         0x0800517e        0x2 00000000
 .text.rt_show_version
                0x08005180       0x4c build\kernel\src\kservice.o
                0x08005180                rt_show_version
 .text.divide   0x080051cc       0x68 build\kernel\src\kservice.o
 .text.skip_atoi
                0x08005234       0x40 build\kernel\src\kservice.o
 .text.print_number
                0x08005274      0x1d8 build\kernel\src\kservice.o
 .text.rt_vsnprintf
                0x0800544c      0x4ac build\kernel\src\kservice.o
                0x0800544c                rt_vsnprintf
 .text.rt_vsprintf
                0x080058f8       0x24 build\kernel\src\kservice.o
                0x080058f8                rt_vsprintf
 .text.rt_sprintf
                0x0800591c       0x2c build\kernel\src\kservice.o
                0x0800591c                rt_sprintf
 .text.rt_console_get_device
                0x08005948       0x18 build\kernel\src\kservice.o
                0x08005948                rt_console_get_device
 .text.rt_console_set_device
                0x08005960       0x58 build\kernel\src\kservice.o
                0x08005960                rt_console_set_device
 .text.rt_hw_console_output
                0x080059b8       0x14 build\kernel\src\kservice.o
                0x080059b8                rt_hw_console_output
 .text.rt_kputs
                0x080059cc       0x44 build\kernel\src\kservice.o
                0x080059cc                rt_kputs
 .text.rt_kprintf
                0x08005a10       0x60 build\kernel\src\kservice.o
                0x08005a10                rt_kprintf
 .text._heap_lock_init
                0x08005a70       0x1c build\kernel\src\kservice.o
 .text._heap_lock
                0x08005a8c       0x28 build\kernel\src\kservice.o
 .text._heap_unlock
                0x08005ab4       0x40 build\kernel\src\kservice.o
 .text._smem_info
                0x08005af4       0x4c build\kernel\src\kservice.o
 .text.rt_system_heap_init
                0x08005b40       0x64 build\kernel\src\kservice.o
                0x08005b40                rt_system_heap_init
 .text.rt_malloc
                0x08005ba4       0x48 build\kernel\src\kservice.o
                0x08005ba4                rt_malloc
 .text.rt_calloc
                0x08005bec       0x3c build\kernel\src\kservice.o
                0x08005bec                rt_calloc
 .text.rt_free  0x08005c28       0x38 build\kernel\src\kservice.o
                0x08005c28                rt_free
 .text.rt_memory_info
                0x08005c60       0x2a build\kernel\src\kservice.o
                0x08005c60                rt_memory_info
 *fill*         0x08005c8a        0x2 00000000
 .text.__rt_ffs
                0x08005c8c       0x70 build\kernel\src\kservice.o
                0x08005c8c                __rt_ffs
 .text.rt_assert_handler
                0x08005cfc       0x4c build\kernel\src\kservice.o
                0x08005cfc                rt_assert_handler
 .text.rt_hw_stack_init
                0x08005d48       0x90 build\kernel\libcpu\arm\cortex-m4\cpuport.o
                0x08005d48                rt_hw_stack_init
 .text.usage_fault_track
                0x08005dd8       0xc4 build\kernel\libcpu\arm\cortex-m4\cpuport.o
 .text.bus_fault_track
                0x08005e9c       0xcc build\kernel\libcpu\arm\cortex-m4\cpuport.o
 .text.mem_manage_fault_track
                0x08005f68       0xb4 build\kernel\libcpu\arm\cortex-m4\cpuport.o
 .text.hard_fault_track
                0x0800601c       0x78 build\kernel\libcpu\arm\cortex-m4\cpuport.o
 .text.rt_hw_hard_fault_exception
                0x08006094      0x184 build\kernel\libcpu\arm\cortex-m4\cpuport.o
                0x08006094                rt_hw_hard_fault_exception
 .text.finsh_get_prompt
                0x08006218       0x7c build\kernel\components\finsh\shell.o
                0x08006218                finsh_get_prompt
 .text.finsh_set_prompt_mode
                0x08006294       0x48 build\kernel\components\finsh\shell.o
                0x08006294                finsh_set_prompt_mode
 .text.finsh_getchar
                0x080062dc       0x90 build\kernel\components\finsh\shell.o
                0x080062dc                finsh_getchar
 .text.finsh_rx_ind
                0x0800636c       0x3c build\kernel\components\finsh\shell.o
 .text.finsh_set_device
                0x080063a8       0xd8 build\kernel\components\finsh\shell.o
                0x080063a8                finsh_set_device
 .text.shell_auto_complete
                0x08006480       0x34 build\kernel\components\finsh\shell.o
 .text.shell_handle_history
                0x080064b4       0x34 build\kernel\components\finsh\shell.o
 .text.shell_push_history
                0x080064e8      0x15e build\kernel\components\finsh\shell.o
 *fill*         0x08006646        0x2 00000000
 .text.finsh_thread_entry
                0x08006648      0x5cc build\kernel\components\finsh\shell.o
                0x08006648                finsh_thread_entry
 .text.finsh_system_function_init
                0x08006c14       0x2c build\kernel\components\finsh\shell.o
                0x08006c14                finsh_system_function_init
 .text.finsh_system_init
                0x08006c40       0x9c build\kernel\components\finsh\shell.o
                0x08006c40                finsh_system_init
 .text.msh_help
                0x08006cdc       0x5c build\kernel\components\finsh\msh.o
                0x08006cdc                msh_help
 .text.cmd_ps   0x08006d38       0x18 build\kernel\components\finsh\msh.o
                0x08006d38                cmd_ps
 .text.cmd_free
                0x08006d50       0x5c build\kernel\components\finsh\msh.o
                0x08006d50                cmd_free
 .text.msh_split
                0x08006dac      0x170 build\kernel\components\finsh\msh.o
 .text.msh_get_cmd
                0x08006f1c       0x64 build\kernel\components\finsh\msh.o
 .text._msh_exec_cmd
                0x08006f80       0xd4 build\kernel\components\finsh\msh.o
 .text.msh_exec
                0x08007054       0x8c build\kernel\components\finsh\msh.o
                0x08007054                msh_exec
 .text.str_common
                0x080070e0       0x4a build\kernel\components\finsh\msh.o
 *fill*         0x0800712a        0x2 00000000
 .text.msh_auto_complete
                0x0800712c       0xb0 build\kernel\components\finsh\msh.o
                0x0800712c                msh_auto_complete
 .text.rt_list_isempty
                0x080071dc       0x24 build\kernel\components\finsh\cmd.o
 .text.rt_list_len
                0x08007200       0x36 build\kernel\components\finsh\cmd.o
 *fill*         0x08007236        0x2 00000000
 .text.clear    0x08007238       0x14 build\kernel\components\finsh\cmd.o
 .text.version  0x0800724c        0xe build\kernel\components\finsh\cmd.o
                0x0800724c                version
 *fill*         0x0800725a        0x2 00000000
 .text.object_split
                0x0800725c       0x28 build\kernel\components\finsh\cmd.o
 .text.list_find_init
                0x08007284       0x46 build\kernel\components\finsh\cmd.o
 .text.list_get_next
                0x080072ca       0xc6 build\kernel\components\finsh\cmd.o
 .text.list_thread
                0x08007390      0x208 build\kernel\components\finsh\cmd.o
                0x08007390                list_thread
 .text.show_wait_queue
                0x08007598       0x54 build\kernel\components\finsh\cmd.o
 .text.list_sem
                0x080075ec      0x128 build\kernel\components\finsh\cmd.o
                0x080075ec                list_sem
 .text.list_event
                0x08007714      0x118 build\kernel\components\finsh\cmd.o
                0x08007714                list_event
 .text.list_mutex
                0x0800782c       0xe8 build\kernel\components\finsh\cmd.o
                0x0800782c                list_mutex
 .text.list_mailbox
                0x08007914      0x138 build\kernel\components\finsh\cmd.o
                0x08007914                list_mailbox
 .text.list_msgqueue
                0x08007a4c      0x128 build\kernel\components\finsh\cmd.o
                0x08007a4c                list_msgqueue
 .text.list_mempool
                0x08007b74      0x140 build\kernel\components\finsh\cmd.o
                0x08007b74                list_mempool
 .text.list_timer
                0x08007cb4      0x128 build\kernel\components\finsh\cmd.o
                0x08007cb4                list_timer
 .text.list_device
                0x08007ddc       0xec build\kernel\components\finsh\cmd.o
                0x08007ddc                list_device
 .text.__errno  0x08007ec8        0xe build\kernel\components\libc\compilers\newlib\syscalls.o
                0x08007ec8                __errno
 .text.rt_slist_init
                0x08007ed6       0x1a build\kernel\components\utilities\ulog\ulog.o
 .text.rt_slist_append
                0x08007ef0       0x36 build\kernel\components\utilities\ulog\ulog.o
 .text.rt_slist_first
                0x08007f26       0x18 build\kernel\components\utilities\ulog\ulog.o
 .text.rt_slist_next
                0x08007f3e       0x18 build\kernel\components\utilities\ulog\ulog.o
 *fill*         0x08007f56        0x2 00000000
 .text.ulog_strcpy
                0x08007f58       0x74 build\kernel\components\utilities\ulog\ulog.o
                0x08007f58                ulog_strcpy
 .text.ulog_ultoa
                0x08007fcc       0xb0 build\kernel\components\utilities\ulog\ulog.o
                0x08007fcc                ulog_ultoa
 .text.output_unlock
                0x0800807c       0x34 build\kernel\components\utilities\ulog\ulog.o
 .text.output_lock
                0x080080b0       0x38 build\kernel\components\utilities\ulog\ulog.o
 .text.get_log_buf
                0x080080e8       0x28 build\kernel\components\utilities\ulog\ulog.o
 .text.ulog_formater
                0x08008110      0x2d0 build\kernel\components\utilities\ulog\ulog.o
                0x08008110                ulog_formater
 .text.ulog_output_to_all_backend
                0x080083e0      0x124 build\kernel\components\utilities\ulog\ulog.o
                0x080083e0                ulog_output_to_all_backend
 .text.do_output
                0x08008504       0x46 build\kernel\components\utilities\ulog\ulog.o
 *fill*         0x0800854a        0x2 00000000
 .text.ulog_voutput
                0x0800854c       0xdc build\kernel\components\utilities\ulog\ulog.o
                0x0800854c                ulog_voutput
 .text.ulog_output
                0x08008628       0x32 build\kernel\components\utilities\ulog\ulog.o
                0x08008628                ulog_output
 *fill*         0x0800865a        0x2 00000000
 .text.ulog_backend_register
                0x0800865c       0xc0 build\kernel\components\utilities\ulog\ulog.o
                0x0800865c                ulog_backend_register
 .text.ulog_init
                0x0800871c       0x44 build\kernel\components\utilities\ulog\ulog.o
                0x0800871c                ulog_init
 .text.ulog_console_backend_output
                0x08008760       0x50 build\kernel\components\utilities\ulog\backend\console_be.o
                0x08008760                ulog_console_backend_output
 .text.ulog_console_backend_init
                0x080087b0       0x2c build\kernel\components\utilities\ulog\backend\console_be.o
                0x080087b0                ulog_console_backend_init
 .text.SystemInit
                0x080087dc       0x94 libraries\GD32F30x_Firmware_Library\CMSIS\GD\GD32F30x\Source\system_gd32f30x.o
                0x080087dc                SystemInit
 .text.system_clock_config
                0x08008870        0xc libraries\GD32F30x_Firmware_Library\CMSIS\GD\GD32F30x\Source\system_gd32f30x.o
 .text.system_clock_108m_hxtal
                0x0800887c      0x14c libraries\GD32F30x_Firmware_Library\CMSIS\GD\GD32F30x\Source\system_gd32f30x.o
 .text.rcu_periph_clock_enable
                0x080089c8       0x46 libraries\GD32F30x_Firmware_Library\GD32F30x_standard_peripheral\Source\gd32f30x_rcu.o
                0x080089c8                rcu_periph_clock_enable
 *fill*         0x08008a0e        0x2 00000000
 .text.rcu_clock_freq_get
                0x08008a10      0x1e4 libraries\GD32F30x_Firmware_Library\GD32F30x_standard_peripheral\Source\gd32f30x_rcu.o
                0x08008a10                rcu_clock_freq_get
 .text.dma_deinit
                0x08008bf4       0xcc libraries\GD32F30x_Firmware_Library\GD32F30x_standard_peripheral\Source\gd32f30x_dma.o
                0x08008bf4                dma_deinit
 .text.dma_struct_para_init
                0x08008cc0       0x52 libraries\GD32F30x_Firmware_Library\GD32F30x_standard_peripheral\Source\gd32f30x_dma.o
                0x08008cc0                dma_struct_para_init
 .text.dma_init
                0x08008d12      0x1f6 libraries\GD32F30x_Firmware_Library\GD32F30x_standard_peripheral\Source\gd32f30x_dma.o
                0x08008d12                dma_init
 .text.dma_circulation_enable
                0x08008f08       0x54 libraries\GD32F30x_Firmware_Library\GD32F30x_standard_peripheral\Source\gd32f30x_dma.o
                0x08008f08                dma_circulation_enable
 .text.dma_circulation_disable
                0x08008f5c       0x54 libraries\GD32F30x_Firmware_Library\GD32F30x_standard_peripheral\Source\gd32f30x_dma.o
                0x08008f5c                dma_circulation_disable
 .text.dma_memory_to_memory_disable
                0x08008fb0       0x54 libraries\GD32F30x_Firmware_Library\GD32F30x_standard_peripheral\Source\gd32f30x_dma.o
                0x08008fb0                dma_memory_to_memory_disable
 .text.dma_channel_enable
                0x08009004       0x54 libraries\GD32F30x_Firmware_Library\GD32F30x_standard_peripheral\Source\gd32f30x_dma.o
                0x08009004                dma_channel_enable
 .text.dma_channel_disable
                0x08009058       0x54 libraries\GD32F30x_Firmware_Library\GD32F30x_standard_peripheral\Source\gd32f30x_dma.o
                0x08009058                dma_channel_disable
 .text.dma_memory_address_config
                0x080090ac       0x40 libraries\GD32F30x_Firmware_Library\GD32F30x_standard_peripheral\Source\gd32f30x_dma.o
                0x080090ac                dma_memory_address_config
 .text.dma_transfer_number_config
                0x080090ec       0x42 libraries\GD32F30x_Firmware_Library\GD32F30x_standard_peripheral\Source\gd32f30x_dma.o
                0x080090ec                dma_transfer_number_config
 .text.dma_transfer_number_get
                0x0800912e       0x3a libraries\GD32F30x_Firmware_Library\GD32F30x_standard_peripheral\Source\gd32f30x_dma.o
                0x0800912e                dma_transfer_number_get
 .text.dma_interrupt_flag_get
                0x08009168       0xda libraries\GD32F30x_Firmware_Library\GD32F30x_standard_peripheral\Source\gd32f30x_dma.o
                0x08009168                dma_interrupt_flag_get
 .text.dma_interrupt_flag_clear
                0x08009242       0x32 libraries\GD32F30x_Firmware_Library\GD32F30x_standard_peripheral\Source\gd32f30x_dma.o
                0x08009242                dma_interrupt_flag_clear
 .text.dma_interrupt_enable
                0x08009274       0x56 libraries\GD32F30x_Firmware_Library\GD32F30x_standard_peripheral\Source\gd32f30x_dma.o
                0x08009274                dma_interrupt_enable
 *fill*         0x080092ca        0x2 00000000
 .text.dma_periph_and_channel_check
                0x080092cc       0x34 libraries\GD32F30x_Firmware_Library\GD32F30x_standard_peripheral\Source\gd32f30x_dma.o
 .text.usart_baudrate_set
                0x08009300       0xe0 libraries\GD32F30x_Firmware_Library\GD32F30x_standard_peripheral\Source\gd32f30x_usart.o
                0x08009300                usart_baudrate_set
 .text.usart_parity_config
                0x080093e0       0x38 libraries\GD32F30x_Firmware_Library\GD32F30x_standard_peripheral\Source\gd32f30x_usart.o
                0x080093e0                usart_parity_config
 .text.usart_word_length_set
                0x08009418       0x38 libraries\GD32F30x_Firmware_Library\GD32F30x_standard_peripheral\Source\gd32f30x_usart.o
                0x08009418                usart_word_length_set
 .text.usart_stop_bit_set
                0x08009450       0x38 libraries\GD32F30x_Firmware_Library\GD32F30x_standard_peripheral\Source\gd32f30x_usart.o
                0x08009450                usart_stop_bit_set
 .text.usart_enable
                0x08009488       0x24 libraries\GD32F30x_Firmware_Library\GD32F30x_standard_peripheral\Source\gd32f30x_usart.o
                0x08009488                usart_enable
 .text.usart_transmit_config
                0x080094ac       0x3c libraries\GD32F30x_Firmware_Library\GD32F30x_standard_peripheral\Source\gd32f30x_usart.o
                0x080094ac                usart_transmit_config
 .text.usart_receive_config
                0x080094e8       0x3c libraries\GD32F30x_Firmware_Library\GD32F30x_standard_peripheral\Source\gd32f30x_usart.o
                0x080094e8                usart_receive_config
 .text.usart_data_transmit
                0x08009524       0x24 libraries\GD32F30x_Firmware_Library\GD32F30x_standard_peripheral\Source\gd32f30x_usart.o
                0x08009524                usart_data_transmit
 .text.usart_data_receive
                0x08009548       0x22 libraries\GD32F30x_Firmware_Library\GD32F30x_standard_peripheral\Source\gd32f30x_usart.o
                0x08009548                usart_data_receive
 .text.usart_dma_receive_config
                0x0800956a       0x3c libraries\GD32F30x_Firmware_Library\GD32F30x_standard_peripheral\Source\gd32f30x_usart.o
                0x0800956a                usart_dma_receive_config
 .text.usart_dma_transmit_config
                0x080095a6       0x3c libraries\GD32F30x_Firmware_Library\GD32F30x_standard_peripheral\Source\gd32f30x_usart.o
                0x080095a6                usart_dma_transmit_config
 .text.usart_flag_get
                0x080095e2       0x3e libraries\GD32F30x_Firmware_Library\GD32F30x_standard_peripheral\Source\gd32f30x_usart.o
                0x080095e2                usart_flag_get
 .text.usart_flag_clear
                0x08009620       0x44 libraries\GD32F30x_Firmware_Library\GD32F30x_standard_peripheral\Source\gd32f30x_usart.o
                0x08009620                usart_flag_clear
 .text.usart_interrupt_enable
                0x08009664       0x42 libraries\GD32F30x_Firmware_Library\GD32F30x_standard_peripheral\Source\gd32f30x_usart.o
                0x08009664                usart_interrupt_enable
 .text.usart_interrupt_disable
                0x080096a6       0x44 libraries\GD32F30x_Firmware_Library\GD32F30x_standard_peripheral\Source\gd32f30x_usart.o
                0x080096a6                usart_interrupt_disable
 .text.usart_interrupt_flag_get
                0x080096ea       0x6a libraries\GD32F30x_Firmware_Library\GD32F30x_standard_peripheral\Source\gd32f30x_usart.o
                0x080096ea                usart_interrupt_flag_get
 .text.exti_init
                0x08009754       0xf4 libraries\GD32F30x_Firmware_Library\GD32F30x_standard_peripheral\Source\gd32f30x_exti.o
                0x08009754                exti_init
 .text.exti_interrupt_flag_get
                0x08009848       0x44 libraries\GD32F30x_Firmware_Library\GD32F30x_standard_peripheral\Source\gd32f30x_exti.o
                0x08009848                exti_interrupt_flag_get
 .text.exti_interrupt_flag_clear
                0x0800988c       0x20 libraries\GD32F30x_Firmware_Library\GD32F30x_standard_peripheral\Source\gd32f30x_exti.o
                0x0800988c                exti_interrupt_flag_clear
 .text.gpio_init
                0x080098ac      0x16a libraries\GD32F30x_Firmware_Library\GD32F30x_standard_peripheral\Source\gd32f30x_gpio.o
                0x080098ac                gpio_init
 .text.gpio_bit_set
                0x08009a16       0x20 libraries\GD32F30x_Firmware_Library\GD32F30x_standard_peripheral\Source\gd32f30x_gpio.o
                0x08009a16                gpio_bit_set
 .text.gpio_bit_write
                0x08009a36       0x36 libraries\GD32F30x_Firmware_Library\GD32F30x_standard_peripheral\Source\gd32f30x_gpio.o
                0x08009a36                gpio_bit_write
 .text.gpio_input_bit_get
                0x08009a6c       0x2a libraries\GD32F30x_Firmware_Library\GD32F30x_standard_peripheral\Source\gd32f30x_gpio.o
                0x08009a6c                gpio_input_bit_get
 *fill*         0x08009a96        0x2 00000000
 .text.gpio_pin_remap_config
                0x08009a98       0xe8 libraries\GD32F30x_Firmware_Library\GD32F30x_standard_peripheral\Source\gd32f30x_gpio.o
                0x08009a98                gpio_pin_remap_config
 .text.gpio_exti_source_select
                0x08009b80       0xf0 libraries\GD32F30x_Firmware_Library\GD32F30x_standard_peripheral\Source\gd32f30x_gpio.o
                0x08009b80                gpio_exti_source_select
 .text.nvic_priority_group_set
                0x08009c70       0x28 libraries\GD32F30x_Firmware_Library\GD32F30x_standard_peripheral\Source\gd32f30x_misc.o
                0x08009c70                nvic_priority_group_set
 .text.nvic_irq_enable
                0x08009c98      0x10c libraries\GD32F30x_Firmware_Library\GD32F30x_standard_peripheral\Source\gd32f30x_misc.o
                0x08009c98                nvic_irq_enable
 .text.nvic_irq_disable
                0x08009da4       0x38 libraries\GD32F30x_Firmware_Library\GD32F30x_standard_peripheral\Source\gd32f30x_misc.o
                0x08009da4                nvic_irq_disable
 .text.get_pin  0x08009ddc       0x44 libraries\gd32_drivers\drv_gpio.o
                0x08009ddc                get_pin
 .text.gd32_pin_mode
                0x08009e20       0x90 libraries\gd32_drivers\drv_gpio.o
 .text.gd32_pin_write
                0x08009eb0       0x3e libraries\gd32_drivers\drv_gpio.o
 .text.gd32_pin_read
                0x08009eee       0x46 libraries\gd32_drivers\drv_gpio.o
 .text.bit2bitno
                0x08009f34       0x3e libraries\gd32_drivers\drv_gpio.o
 *fill*         0x08009f72        0x2 00000000
 .text.get_pin_irq_map
                0x08009f74       0x34 libraries\gd32_drivers\drv_gpio.o
 .text.gd32_pin_attach_irq
                0x08009fa8      0x150 libraries\gd32_drivers\drv_gpio.o
 .text.gd32_pin_detach_irq
                0x0800a0f8       0xd8 libraries\gd32_drivers\drv_gpio.o
 .text.gd32_pin_irq_enable
                0x0800a1d0      0x15c libraries\gd32_drivers\drv_gpio.o
 .text.pin_irq_hdr
                0x0800a32c       0x54 libraries\gd32_drivers\drv_gpio.o
 .text.GD32_GPIO_EXTI_IRQHandler
                0x0800a380       0x42 libraries\gd32_drivers\drv_gpio.o
                0x0800a380                GD32_GPIO_EXTI_IRQHandler
 .text.EXTI0_IRQHandler
                0x0800a3c2       0x16 libraries\gd32_drivers\drv_gpio.o
                0x0800a3c2                EXTI0_IRQHandler
 .text.EXTI1_IRQHandler
                0x0800a3d8       0x16 libraries\gd32_drivers\drv_gpio.o
                0x0800a3d8                EXTI1_IRQHandler
 .text.EXTI2_IRQHandler
                0x0800a3ee       0x16 libraries\gd32_drivers\drv_gpio.o
                0x0800a3ee                EXTI2_IRQHandler
 .text.EXTI3_IRQHandler
                0x0800a404       0x16 libraries\gd32_drivers\drv_gpio.o
                0x0800a404                EXTI3_IRQHandler
 .text.EXTI4_IRQHandler
                0x0800a41a       0x16 libraries\gd32_drivers\drv_gpio.o
                0x0800a41a                EXTI4_IRQHandler
 .text.EXTI5_9_IRQHandler
                0x0800a430       0x2e libraries\gd32_drivers\drv_gpio.o
                0x0800a430                EXTI5_9_IRQHandler
 .text.EXTI10_15_IRQHandler
                0x0800a45e       0x34 libraries\gd32_drivers\drv_gpio.o
                0x0800a45e                EXTI10_15_IRQHandler
 *fill*         0x0800a492        0x2 00000000
 .text.rt_hw_pin_init
                0x0800a494       0x24 libraries\gd32_drivers\drv_gpio.o
                0x0800a494                rt_hw_pin_init
 .text.GPIO_OUTPUT_BIT_GET
                0x0800a4b8       0x2a libraries\gd32_drivers\drv_soft_spi.o
 .text.GPIO_BIT_RESET
                0x0800a4e2       0x20 libraries\gd32_drivers\drv_soft_spi.o
 .text.GPIO_BIT_SET
                0x0800a502       0x20 libraries\gd32_drivers\drv_soft_spi.o
 .text.GPIO_INPUT_BIT_GET
                0x0800a522       0x2a libraries\gd32_drivers\drv_soft_spi.o
 .text.GPIO_INIT
                0x0800a54c      0x148 libraries\gd32_drivers\drv_soft_spi.o
 .text.gpio_tog_sclk
                0x0800a694       0x4c libraries\gd32_drivers\drv_soft_spi.o
 .text.gpio_set_sclk
                0x0800a6e0       0x3e libraries\gd32_drivers\drv_soft_spi.o
 .text.gpio_set_mosi
                0x0800a71e       0x3e libraries\gd32_drivers\drv_soft_spi.o
 .text.gpio_set_miso
                0x0800a75c       0x3e libraries\gd32_drivers\drv_soft_spi.o
 .text.gpio_get_sclk
                0x0800a79a       0x26 libraries\gd32_drivers\drv_soft_spi.o
 .text.gpio_get_mosi
                0x0800a7c0       0x26 libraries\gd32_drivers\drv_soft_spi.o
 .text.gpio_get_miso
                0x0800a7e6       0x26 libraries\gd32_drivers\drv_soft_spi.o
 .text.gpio_dir_mosi
                0x0800a80c       0x3e libraries\gd32_drivers\drv_soft_spi.o
 .text.gpio_dir_miso
                0x0800a84a       0x3e libraries\gd32_drivers\drv_soft_spi.o
 .text.gpio_udelay
                0x0800a888       0x30 libraries\gd32_drivers\drv_soft_spi.o
 .text.soft_spi_gpio_init
                0x0800a8b8       0x8e libraries\gd32_drivers\drv_soft_spi.o
 *fill*         0x0800a946        0x2 00000000
 .text.rt_soft_spi_init
                0x0800a948      0x180 libraries\gd32_drivers\drv_soft_spi.o
                0x0800a948                rt_soft_spi_init
 .text.rt_sw_spi_device_attach
                0x0800aac8       0xd4 libraries\gd32_drivers\drv_soft_spi.o
                0x0800aac8                rt_sw_spi_device_attach
 .text.NVIC_EnableIRQ
                0x0800ab9c       0x34 libraries\gd32_drivers\drv_usart.o
 .text.NVIC_DisableIRQ
                0x0800abd0       0x34 libraries\gd32_drivers\drv_usart.o
 .text.NVIC_SetPriority
                0x0800ac04       0x54 libraries\gd32_drivers\drv_usart.o
 .text.uart_isr
                0x0800ac58      0x1d0 libraries\gd32_drivers\drv_usart.o
 .text.dma_rx_isr
                0x0800ae28      0x10c libraries\gd32_drivers\drv_usart.o
 .text.dma_tx_isr
                0x0800af34       0x9c libraries\gd32_drivers\drv_usart.o
 .text.USART0_IRQHandler
                0x0800afd0       0x1c libraries\gd32_drivers\drv_usart.o
                0x0800afd0                USART0_IRQHandler
 .text.DMA0_Channel4_IRQHandler
                0x0800afec       0x1c libraries\gd32_drivers\drv_usart.o
                0x0800afec                DMA0_Channel4_IRQHandler
 .text.DMA0_Channel3_IRQHandler
                0x0800b008       0x1c libraries\gd32_drivers\drv_usart.o
                0x0800b008                DMA0_Channel3_IRQHandler
 .text.gd32_dma_config
                0x0800b024      0x1f4 libraries\gd32_drivers\drv_usart.o
 .text.gd32_uart_gpio_init
                0x0800b218       0x7a libraries\gd32_drivers\drv_usart.o
                0x0800b218                gd32_uart_gpio_init
 *fill*         0x0800b292        0x2 00000000
 .text.gd32_uart_configure
                0x0800b294      0x134 libraries\gd32_drivers\drv_usart.o
 .text.gd32_uart_control
                0x0800b3c8       0xd0 libraries\gd32_drivers\drv_usart.o
 .text.gd32_uart_putc
                0x0800b498       0x5c libraries\gd32_drivers\drv_usart.o
 .text.gd32_uart_getc
                0x0800b4f4       0x5c libraries\gd32_drivers\drv_usart.o
 .text.gd32_dma_transmit
                0x0800b550       0xbc libraries\gd32_drivers\drv_usart.o
 .text.gd32_hw_usart_init
                0x0800b60c      0x100 libraries\gd32_drivers\drv_usart.o
                0x0800b60c                gd32_hw_usart_init
 .text.rt_list_init
                0x0800b70c       0x22 build\kernel\components\drivers\ipc\dataqueue.o
 .text.rt_list_insert_before
                0x0800b72e       0x32 build\kernel\components\drivers\ipc\dataqueue.o
 .text.rt_list_isempty
                0x0800b760       0x24 build\kernel\components\drivers\ipc\dataqueue.o
 .text.rt_data_queue_init
                0x0800b784       0xc0 build\kernel\components\drivers\ipc\dataqueue.o
                0x0800b784                rt_data_queue_init
 .text.rt_data_queue_push
                0x0800b844      0x250 build\kernel\components\drivers\ipc\dataqueue.o
                0x0800b844                rt_data_queue_push
 .text.rt_data_queue_pop
                0x0800ba94      0x2ac build\kernel\components\drivers\ipc\dataqueue.o
                0x0800ba94                rt_data_queue_pop
 .text.rt_data_queue_peek
                0x0800bd40       0xa4 build\kernel\components\drivers\ipc\dataqueue.o
                0x0800bd40                rt_data_queue_peek
 .text.rt_data_queue_reset
                0x0800bde4       0xfc build\kernel\components\drivers\ipc\dataqueue.o
                0x0800bde4                rt_data_queue_reset
 .text.rt_data_queue_deinit
                0x0800bee0       0x70 build\kernel\components\drivers\ipc\dataqueue.o
                0x0800bee0                rt_data_queue_deinit
 .text.rt_data_queue_len
                0x0800bf50       0xc4 build\kernel\components\drivers\ipc\dataqueue.o
                0x0800bf50                rt_data_queue_len
 .text.rt_list_init
                0x0800c014       0x22 build\kernel\components\drivers\ipc\workqueue.o
 .text.rt_list_remove
                0x0800c036       0x36 build\kernel\components\drivers\ipc\workqueue.o
 .text.rt_list_isempty
                0x0800c06c       0x24 build\kernel\components\drivers\ipc\workqueue.o
 .text._workqueue_work_completion
                0x0800c090       0x4c build\kernel\components\drivers\ipc\workqueue.o
 .text._workqueue_thread_entry
                0x0800c0dc       0x9c build\kernel\components\drivers\ipc\workqueue.o
 .text.rt_workqueue_create
                0x0800c178       0x94 build\kernel\components\drivers\ipc\workqueue.o
                0x0800c178                rt_workqueue_create
 .text.rt_work_sys_workqueue_init
                0x0800c20c       0x4c build\kernel\components\drivers\ipc\workqueue.o
 .text.rt_list_init
                0x0800c258       0x22 build\kernel\components\drivers\ipc\completion.o
 .text.rt_list_insert_before
                0x0800c27a       0x32 build\kernel\components\drivers\ipc\completion.o
 .text.rt_list_isempty
                0x0800c2ac       0x24 build\kernel\components\drivers\ipc\completion.o
 .text.rt_completion_init
                0x0800c2d0       0x44 build\kernel\components\drivers\ipc\completion.o
                0x0800c2d0                rt_completion_init
 .text.rt_completion_wait
                0x0800c314      0x15c build\kernel\components\drivers\ipc\completion.o
                0x0800c314                rt_completion_wait
 .text.rt_completion_done
                0x0800c470       0x70 build\kernel\components\drivers\ipc\completion.o
                0x0800c470                rt_completion_done
 .text._pin_read
                0x0800c4e0       0x60 build\kernel\components\drivers\misc\pin.o
 .text._pin_write
                0x0800c540       0x5c build\kernel\components\drivers\misc\pin.o
 .text._pin_control
                0x0800c59c       0x58 build\kernel\components\drivers\misc\pin.o
 .text.rt_device_pin_register
                0x0800c5f4       0x74 build\kernel\components\drivers\misc\pin.o
                0x0800c5f4                rt_device_pin_register
 .text.rt_pin_attach_irq
                0x0800c668       0x5c build\kernel\components\drivers\misc\pin.o
                0x0800c668                rt_pin_attach_irq
 .text.rt_pin_irq_enable
                0x0800c6c4       0x50 build\kernel\components\drivers\misc\pin.o
                0x0800c6c4                rt_pin_irq_enable
 .text.rt_pin_mode
                0x0800c714       0x40 build\kernel\components\drivers\misc\pin.o
                0x0800c714                rt_pin_mode
 .text.rt_pin_write
                0x0800c754       0x40 build\kernel\components\drivers\misc\pin.o
                0x0800c754                rt_pin_write
 .text._serial_poll_rx
                0x0800c794       0x80 build\kernel\components\drivers\serial\serial.o
 .text._serial_poll_tx
                0x0800c814       0x7c build\kernel\components\drivers\serial\serial.o
 .text._serial_int_rx
                0x0800c890       0xd8 build\kernel\components\drivers\serial\serial.o
 .text._serial_int_tx
                0x0800c968       0xc4 build\kernel\components\drivers\serial\serial.o
 .text._serial_check_buffer_size
                0x0800ca2c       0x20 build\kernel\components\drivers\serial\serial.o
 .text._serial_fifo_calc_recved_len
                0x0800ca4c       0x88 build\kernel\components\drivers\serial\serial.o
 .text.rt_dma_calc_recved_len
                0x0800cad4       0x18 build\kernel\components\drivers\serial\serial.o
 .text.rt_dma_recv_update_get_index
                0x0800caec       0xa4 build\kernel\components\drivers\serial\serial.o
 .text.rt_dma_recv_update_put_index
                0x0800cb90       0xf8 build\kernel\components\drivers\serial\serial.o
 .text._serial_dma_rx
                0x0800cc88      0x198 build\kernel\components\drivers\serial\serial.o
 .text._serial_dma_tx
                0x0800ce20       0x70 build\kernel\components\drivers\serial\serial.o
 .text.rt_serial_init
                0x0800ce90       0x5c build\kernel\components\drivers\serial\serial.o
 .text.rt_serial_open
                0x0800ceec      0x370 build\kernel\components\drivers\serial\serial.o
 .text.rt_serial_close
                0x0800d25c      0x1e0 build\kernel\components\drivers\serial\serial.o
 .text.rt_serial_read
                0x0800d43c       0x84 build\kernel\components\drivers\serial\serial.o
 .text.rt_serial_write
                0x0800d4c0       0x84 build\kernel\components\drivers\serial\serial.o
 .text.rt_serial_control
                0x0800d544       0xd8 build\kernel\components\drivers\serial\serial.o
 .text.rt_hw_serial_register
                0x0800d61c       0x9c build\kernel\components\drivers\serial\serial.o
                0x0800d61c                rt_hw_serial_register
 .text.rt_hw_serial_isr
                0x0800d6b8      0x260 build\kernel\components\drivers\serial\serial.o
                0x0800d6b8                rt_hw_serial_isr
 .text.rt_spi_bus_register
                0x0800d918       0x4c build\kernel\components\drivers\spi\spi_core.o
                0x0800d918                rt_spi_bus_register
 .text.rt_spi_bus_attach_device
                0x0800d964       0x62 build\kernel\components\drivers\spi\spi_core.o
                0x0800d964                rt_spi_bus_attach_device
 *fill*         0x0800d9c6        0x2 00000000
 .text.rt_spi_configure
                0x0800d9c8       0x94 build\kernel\components\drivers\spi\spi_core.o
                0x0800d9c8                rt_spi_configure
 .text.rt_spi_send_then_recv
                0x0800da5c      0x148 build\kernel\components\drivers\spi\spi_core.o
                0x0800da5c                rt_spi_send_then_recv
 .text.rt_spi_transfer
                0x0800dba4      0x108 build\kernel\components\drivers\spi\spi_core.o
                0x0800dba4                rt_spi_transfer
 .text.rt_spi_transfer_message
                0x0800dcac       0xdc build\kernel\components\drivers\spi\spi_core.o
                0x0800dcac                rt_spi_transfer_message
 .text._spi_bus_device_read
                0x0800dd88       0x58 build\kernel\components\drivers\spi\spi_dev.o
 .text._spi_bus_device_write
                0x0800dde0       0x58 build\kernel\components\drivers\spi\spi_dev.o
 .text._spi_bus_device_control
                0x0800de38       0x28 build\kernel\components\drivers\spi\spi_dev.o
 .text.rt_spi_bus_device_init
                0x0800de60       0x70 build\kernel\components\drivers\spi\spi_dev.o
                0x0800de60                rt_spi_bus_device_init
 .text._spidev_device_read
                0x0800ded0       0x58 build\kernel\components\drivers\spi\spi_dev.o
 .text._spidev_device_write
                0x0800df28       0x58 build\kernel\components\drivers\spi\spi_dev.o
 .text._spidev_device_control
                0x0800df80       0x28 build\kernel\components\drivers\spi\spi_dev.o
 .text.rt_spidev_device_init
                0x0800dfa8       0x70 build\kernel\components\drivers\spi\spi_dev.o
                0x0800dfa8                rt_spidev_device_init
 .text.spi_delay
                0x0800e018       0x20 build\kernel\components\drivers\spi\spi-bit-ops.o
 .text.spi_delay2
                0x0800e038       0x1c build\kernel\components\drivers\spi\spi-bit-ops.o
 .text.spi_xfer_4line_data8
                0x0800e054      0x18c build\kernel\components\drivers\spi\spi-bit-ops.o
 .text.spi_xfer_4line_data16
                0x0800e1e0      0x190 build\kernel\components\drivers\spi\spi-bit-ops.o
 .text.spi_xfer_3line_data8
                0x0800e370      0x22c build\kernel\components\drivers\spi\spi-bit-ops.o
 .text.spi_xfer_3line_data16
                0x0800e59c      0x234 build\kernel\components\drivers\spi\spi-bit-ops.o
 .text.spi_bit_configure
                0x0800e7d0       0xc4 build\kernel\components\drivers\spi\spi-bit-ops.o
                0x0800e7d0                spi_bit_configure
 .text.spi_bit_xfer
                0x0800e894      0x150 build\kernel\components\drivers\spi\spi-bit-ops.o
                0x0800e894                spi_bit_xfer
 .text.rt_spi_bit_add_bus
                0x0800e9e4       0x6c build\kernel\components\drivers\spi\spi-bit-ops.o
                0x0800e9e4                rt_spi_bit_add_bus
 .text.atoi     0x0800ea50        0x8 d:/keil_v5/os/rtthread/env-windows-v1.3.5/tools/gnu_gcc/arm_gcc/mingw/bin/../lib/gcc/arm-none-eabi/10.3.1/../../../../arm-none-eabi/lib/thumb/v7e-m+fp/hard\libc.a(lib_a-atoi.o)
                0x0800ea50                atoi
 .text.memcmp   0x0800ea58       0x64 d:/keil_v5/os/rtthread/env-windows-v1.3.5/tools/gnu_gcc/arm_gcc/mingw/bin/../lib/gcc/arm-none-eabi/10.3.1/../../../../arm-none-eabi/lib/thumb/v7e-m+fp/hard\libc.a(lib_a-memcmp.o)
                0x0800ea58                memcmp
 .text.memset   0x0800eabc       0xa4 d:/keil_v5/os/rtthread/env-windows-v1.3.5/tools/gnu_gcc/arm_gcc/mingw/bin/../lib/gcc/arm-none-eabi/10.3.1/../../../../arm-none-eabi/lib/thumb/v7e-m+fp/hard\libc.a(lib_a-memset.o)
                0x0800eabc                memset
 .text.strncmp  0x0800eb60       0x80 d:/keil_v5/os/rtthread/env-windows-v1.3.5/tools/gnu_gcc/arm_gcc/mingw/bin/../lib/gcc/arm-none-eabi/10.3.1/../../../../arm-none-eabi/lib/thumb/v7e-m+fp/hard\libc.a(lib_a-strncmp.o)
                0x0800eb60                strncmp
 .text.strncpy  0x0800ebe0       0x64 d:/keil_v5/os/rtthread/env-windows-v1.3.5/tools/gnu_gcc/arm_gcc/mingw/bin/../lib/gcc/arm-none-eabi/10.3.1/../../../../arm-none-eabi/lib/thumb/v7e-m+fp/hard\libc.a(lib_a-strncpy.o)
                0x0800ebe0                strncpy
 .text._strtol_l.part.0
                0x0800ec44      0x120 d:/keil_v5/os/rtthread/env-windows-v1.3.5/tools/gnu_gcc/arm_gcc/mingw/bin/../lib/gcc/arm-none-eabi/10.3.1/../../../../arm-none-eabi/lib/thumb/v7e-m+fp/hard\libc.a(lib_a-strtol.o)
 .text.strtol   0x0800ed64       0x2c d:/keil_v5/os/rtthread/env-windows-v1.3.5/tools/gnu_gcc/arm_gcc/mingw/bin/../lib/gcc/arm-none-eabi/10.3.1/../../../../arm-none-eabi/lib/thumb/v7e-m+fp/hard\libc.a(lib_a-strtol.o)
                0x0800ed64                strtol
 *(.rodata)
 .rodata        0x0800ed90       0xac build\applications\rs232_link.o
 .rodata        0x0800ee3c        0x6 build\board\board.o
 *fill*         0x0800ee42        0x2 00000000
 .rodata        0x0800ee44       0x54 build\packages\ad7190\ad7190.o
 .rodata        0x0800ee98       0x1e build\packages\ad983x\ad983x.o
 *fill*         0x0800eeb6        0x2 00000000
 .rodata        0x0800eeb8       0x18 build\packages\cobs\cobs.o
 .rodata        0x0800eed0       0x70 build\packages\dac7811\dac7811.o
 .rodata        0x0800ef40      0x41b build\kernel\src\mem.o
 *fill*         0x0800f35b        0x1 00000000
 .rodata        0x0800f35c      0x19f build\kernel\src\thread.o
 *fill*         0x0800f4fb        0x1 00000000
 .rodata        0x0800f4fc       0x91 build\kernel\src\object.o
 *fill*         0x0800f58d        0x3 00000000
 .rodata        0x0800f590      0x106 build\kernel\src\timer.o
 *fill*         0x0800f696        0x2 00000000
 .rodata        0x0800f698        0x8 build\kernel\src\idle.o
 .rodata        0x0800f6a0       0x17 build\kernel\src\components.o
 *fill*         0x0800f6b7        0x1 00000000
 .rodata        0x0800f6b8       0xbc build\kernel\src\device.o
 .rodata        0x0800f774       0x65 build\kernel\src\scheduler.o
 *fill*         0x0800f7d9        0x3 00000000
 .rodata        0x0800f7dc      0x4de build\kernel\src\ipc.o
 *fill*         0x0800fcba        0x2 00000000
 .rodata        0x0800fcbc      0x107 build\kernel\src\kservice.o
 *fill*         0x0800fdc3        0x1 00000000
 .rodata        0x0800fdc4      0x2ce build\kernel\libcpu\arm\cortex-m4\cpuport.o
 *fill*         0x08010092        0x2 00000000
 .rodata        0x08010094       0x91 build\kernel\components\finsh\shell.o
 *fill*         0x08010125        0x3 00000000
 .rodata        0x08010128       0xa8 build\kernel\components\finsh\msh.o
 .rodata        0x080101d0      0x65f build\kernel\components\finsh\cmd.o
 *fill*         0x0801082f        0x1 00000000
 .rodata        0x08010830      0x121 build\kernel\components\utilities\ulog\ulog.o
 *fill*         0x08010951        0x3 00000000
 .rodata        0x08010954        0x8 build\kernel\components\utilities\ulog\backend\console_be.o
 .rodata        0x0801095c       0x18 libraries\GD32F30x_Firmware_Library\GD32F30x_standard_peripheral\Source\gd32f30x_rcu.o
 .rodata        0x08010974        0x4 libraries\gd32_drivers\drv_gpio.o
 .rodata        0x08010978       0xa5 libraries\gd32_drivers\drv_soft_spi.o
 *fill*         0x08010a1d        0x3 00000000
 .rodata        0x08010a20       0xb0 libraries\gd32_drivers\drv_usart.o
 .rodata        0x08010ad0       0xf4 build\kernel\components\drivers\ipc\dataqueue.o
 .rodata        0x08010bc4       0x85 build\kernel\components\drivers\ipc\workqueue.o
 *fill*         0x08010c49        0x3 00000000
 .rodata        0x08010c4c       0xd7 build\kernel\components\drivers\ipc\completion.o
 *fill*         0x08010d23        0x1 00000000
 .rodata        0x08010d24       0x37 build\kernel\components\drivers\misc\pin.o
 *fill*         0x08010d5b        0x1 00000000
 .rodata        0x08010d5c      0x126 build\kernel\components\drivers\serial\serial.o
 *fill*         0x08010e82        0x2 00000000
 .rodata        0x08010e84       0x49 build\kernel\components\drivers\spi\spi_core.o
 *fill*         0x08010ecd        0x3 00000000
 .rodata        0x08010ed0       0x63 build\kernel\components\drivers\spi\spi_dev.o
 *fill*         0x08010f33        0x1 00000000
 .rodata        0x08010f34       0x6c build\kernel\components\drivers\spi\spi-bit-ops.o
 *(.rodata*)
 .rodata.__FUNCTION__.1
                0x08010fa0       0x14 build\applications\rs232_link.o
 .rodata.acrc_hi_lut
                0x08010fb4      0x100 build\packages\cobs\cobs.o
 .rodata.acrc_lo_lut
                0x080110b4      0x100 build\packages\cobs\cobs.o
 .rodata.name   0x080111b4       0x2f build\packages\dac7811\dac7811.o
                0x080111b4                __fsym_dac7811_set_name
                0x080111c0                __fsym_dac7811_set_desc
 *fill*         0x080111e3        0x1 00000000
 .rodata.__FUNCTION__.4
                0x080111e4        0xb build\kernel\src\mem.o
 *fill*         0x080111ef        0x1 00000000
 .rodata.__FUNCTION__.2
                0x080111f0        0xe build\kernel\src\mem.o
 *fill*         0x080111fe        0x2 00000000
 .rodata.__FUNCTION__.0
                0x08011200        0xd build\kernel\src\mem.o
 *fill*         0x0801120d        0x3 00000000
 .rodata.__FUNCTION__.10
                0x08011210       0x10 build\kernel\src\thread.o
 .rodata.__FUNCTION__.9
                0x08011220        0xd build\kernel\src\thread.o
 *fill*         0x0801122d        0x3 00000000
 .rodata.__FUNCTION__.8
                0x08011230        0xf build\kernel\src\thread.o
 *fill*         0x0801123f        0x1 00000000
 .rodata.__FUNCTION__.7
                0x08011240       0x12 build\kernel\src\thread.o
 *fill*         0x08011252        0x2 00000000
 .rodata.__FUNCTION__.6
                0x08011254       0x11 build\kernel\src\thread.o
 *fill*         0x08011265        0x3 00000000
 .rodata.__FUNCTION__.5
                0x08011268       0x11 build\kernel\src\thread.o
 *fill*         0x08011279        0x3 00000000
 .rodata.__FUNCTION__.4
                0x0801127c       0x10 build\kernel\src\thread.o
 .rodata.__FUNCTION__.2
                0x0801128c       0x12 build\kernel\src\thread.o
 *fill*         0x0801129e        0x2 00000000
 .rodata.__FUNCTION__.1
                0x080112a0       0x12 build\kernel\src\thread.o
 *fill*         0x080112b2        0x2 00000000
 .rodata.__FUNCTION__.0
                0x080112b4       0x11 build\kernel\src\thread.o
 *fill*         0x080112c5        0x3 00000000
 .rodata.__FUNCTION__.6
                0x080112c8        0xf build\kernel\src\object.o
 *fill*         0x080112d7        0x1 00000000
 .rodata.__FUNCTION__.5
                0x080112d8       0x11 build\kernel\src\object.o
 *fill*         0x080112e9        0x3 00000000
 .rodata.__FUNCTION__.4
                0x080112ec       0x13 build\kernel\src\object.o
 *fill*         0x080112ff        0x1 00000000
 .rodata.__FUNCTION__.3
                0x08011300       0x11 build\kernel\src\object.o
 *fill*         0x08011311        0x3 00000000
 .rodata.__FUNCTION__.2
                0x08011314       0x1a build\kernel\src\object.o
 *fill*         0x0801132e        0x2 00000000
 .rodata.__FUNCTION__.1
                0x08011330       0x13 build\kernel\src\object.o
 *fill*         0x08011343        0x1 00000000
 .rodata.__FUNCTION__.0
                0x08011344        0xf build\kernel\src\object.o
 *fill*         0x08011353        0x1 00000000
 .rodata.__FUNCTION__.7
                0x08011354        0xe build\kernel\src\timer.o
 *fill*         0x08011362        0x2 00000000
 .rodata.__FUNCTION__.6
                0x08011364       0x10 build\kernel\src\timer.o
 .rodata.__FUNCTION__.3
                0x08011374        0xf build\kernel\src\timer.o
 *fill*         0x08011383        0x1 00000000
 .rodata.__FUNCTION__.1
                0x08011384        0xe build\kernel\src\timer.o
 *fill*         0x08011392        0x2 00000000
 .rodata.__FUNCTION__.0
                0x08011394       0x11 build\kernel\src\timer.o
 *fill*         0x080113a5        0x3 00000000
 .rodata.__FUNCTION__.0
                0x080113a8       0x14 build\kernel\src\components.o
 .rodata.__FUNCTION__.6
                0x080113bc        0xf build\kernel\src\device.o
 *fill*         0x080113cb        0x1 00000000
 .rodata.__FUNCTION__.5
                0x080113cc       0x10 build\kernel\src\device.o
 .rodata.__FUNCTION__.4
                0x080113dc        0xf build\kernel\src\device.o
 *fill*         0x080113eb        0x1 00000000
 .rodata.__FUNCTION__.3
                0x080113ec       0x10 build\kernel\src\device.o
 .rodata.__FUNCTION__.2
                0x080113fc       0x12 build\kernel\src\device.o
 *fill*         0x0801140e        0x2 00000000
 .rodata.__FUNCTION__.1
                0x08011410       0x1a build\kernel\src\device.o
 *fill*         0x0801142a        0x2 00000000
 .rodata.__FUNCTION__.0
                0x0801142c       0x1a build\kernel\src\device.o
 *fill*         0x08011446        0x2 00000000
 .rodata.__FUNCTION__.2
                0x08011448       0x1a build\kernel\src\scheduler.o
 *fill*         0x08011462        0x2 00000000
 .rodata.__FUNCTION__.1
                0x08011464       0x1a build\kernel\src\scheduler.o
 *fill*         0x0801147e        0x2 00000000
 .rodata.__FUNCTION__.0
                0x08011480       0x1a build\kernel\src\scheduler.o
 *fill*         0x0801149a        0x2 00000000
 .rodata.__FUNCTION__.37
                0x0801149c        0xc build\kernel\src\ipc.o
 .rodata.__FUNCTION__.33
                0x080114a8        0xc build\kernel\src\ipc.o
 .rodata.__FUNCTION__.32
                0x080114b4       0x12 build\kernel\src\ipc.o
 *fill*         0x080114c6        0x2 00000000
 .rodata.__FUNCTION__.31
                0x080114c8        0xf build\kernel\src\ipc.o
 *fill*         0x080114d7        0x1 00000000
 .rodata.__FUNCTION__.30
                0x080114d8        0xf build\kernel\src\ipc.o
 *fill*         0x080114e7        0x1 00000000
 .rodata.__FUNCTION__.29
                0x080114e8        0xe build\kernel\src\ipc.o
 *fill*         0x080114f6        0x2 00000000
 .rodata.__FUNCTION__.25
                0x080114f8        0xe build\kernel\src\ipc.o
 *fill*         0x08011506        0x2 00000000
 .rodata.__FUNCTION__.24
                0x08011508       0x11 build\kernel\src\ipc.o
 *fill*         0x08011519        0x3 00000000
 .rodata.__FUNCTION__.7
                0x0801151c        0xb build\kernel\src\ipc.o
 *fill*         0x08011527        0x1 00000000
 .rodata.__FUNCTION__.1
                0x08011528        0xb build\kernel\src\ipc.o
 *fill*         0x08011533        0x1 00000000
 .rodata.__lowest_bit_bitmap
                0x08011534      0x100 build\kernel\src\kservice.o
                0x08011534                __lowest_bit_bitmap
 .rodata.large_digits.4
                0x08011634       0x11 build\kernel\src\kservice.o
 *fill*         0x08011645        0x3 00000000
 .rodata.small_digits.3
                0x08011648       0x11 build\kernel\src\kservice.o
 *fill*         0x08011659        0x3 00000000
 .rodata.__FUNCTION__.1
                0x0801165c       0x14 build\kernel\src\kservice.o
 .rodata.__FUNCTION__.0
                0x08011670        0xd build\kernel\src\kservice.o
 *fill*         0x0801167d        0x3 00000000
 .rodata.__FUNCTION__.6
                0x08011680       0x16 build\kernel\components\finsh\shell.o
 *fill*         0x08011696        0x2 00000000
 .rodata.__FUNCTION__.5
                0x08011698        0xe build\kernel\components\finsh\shell.o
 *fill*         0x080116a6        0x2 00000000
 .rodata.__FUNCTION__.4
                0x080116a8        0xd build\kernel\components\finsh\shell.o
 *fill*         0x080116b5        0x3 00000000
 .rodata.__FUNCTION__.3
                0x080116b8       0x11 build\kernel\components\finsh\shell.o
 *fill*         0x080116c9        0x3 00000000
 .rodata.name   0x080116cc       0x6d build\kernel\components\finsh\msh.o
                0x080116cc                __fsym_help_name
                0x080116d4                __fsym_help_desc
                0x080116ec                __fsym_ps_name
                0x080116f0                __fsym_ps_desc
                0x0801170c                __fsym_free_name
                0x08011714                __fsym_free_desc
 *fill*         0x08011739        0x3 00000000
 .rodata.__FUNCTION__.0
                0x0801173c        0xe build\kernel\components\finsh\msh.o
 *fill*         0x0801174a        0x2 00000000
 .rodata.name   0x0801174c      0x1a2 build\kernel\components\finsh\cmd.o
                0x0801174c                __fsym_clear_name
                0x08011754                __fsym_clear_desc
                0x08011770                __fsym_version_name
                0x08011778                __fsym_version_desc
                0x0801179c                __fsym_list_thread_name
                0x080117a8                __fsym_list_thread_desc
                0x080117b4                __fsym_list_sem_name
                0x080117c0                __fsym_list_sem_desc
                0x080117dc                __fsym_list_event_name
                0x080117e8                __fsym_list_event_desc
                0x08011800                __fsym_list_mutex_name
                0x0801180c                __fsym_list_mutex_desc
                0x08011824                __fsym_list_mailbox_name
                0x08011834                __fsym_list_mailbox_desc
                0x0801184c                __fsym_list_msgqueue_name
                0x0801185c                __fsym_list_msgqueue_desc
                0x0801187c                __fsym_list_mempool_name
                0x0801188c                __fsym_list_mempool_desc
                0x080118a8                __fsym_list_timer_name
                0x080118b4                __fsym_list_timer_desc
                0x080118cc                __fsym_list_device_name
                0x080118d8                __fsym_list_device_desc
 *fill*         0x080118ee        0x2 00000000
 .rodata.device_type_str
                0x080118f0       0x64 build\kernel\components\finsh\cmd.o
 .rodata.level_output_info
                0x08011954       0x20 build\kernel\components\utilities\ulog\ulog.o
 .rodata.color_output_info
                0x08011974       0x20 build\kernel\components\utilities\ulog\ulog.o
 .rodata.__FUNCTION__.14
                0x08011994        0xc build\kernel\components\utilities\ulog\ulog.o
 .rodata.__FUNCTION__.13
                0x080119a0        0xe build\kernel\components\utilities\ulog\ulog.o
 *fill*         0x080119ae        0x2 00000000
 .rodata.__FUNCTION__.8
                0x080119b0        0xd build\kernel\components\utilities\ulog\ulog.o
 *fill*         0x080119bd        0x3 00000000
 .rodata.__FUNCTION__.3
                0x080119c0       0x16 build\kernel\components\utilities\ulog\ulog.o
 *fill*         0x080119d6        0x2 00000000
 .rodata.pins   0x080119d8      0x4e0 libraries\gd32_drivers\drv_gpio.o
 .rodata.pin_irq_map
                0x08011eb8       0x40 libraries\gd32_drivers\drv_gpio.o
 .rodata.gd32_pin_ops
                0x08011ef8       0x1c libraries\gd32_drivers\drv_gpio.o
 .rodata.soft_spi_config
                0x08011f14       0x78 libraries\gd32_drivers\drv_soft_spi.o
 .rodata.__FUNCTION__.0
                0x08011f8c       0x18 libraries\gd32_drivers\drv_soft_spi.o
 .rodata.uart_config
                0x08011fa4       0x60 libraries\gd32_drivers\drv_usart.o
 .rodata.gd32_uart_ops
                0x08012004       0x14 libraries\gd32_drivers\drv_usart.o
 .rodata.__FUNCTION__.9
                0x08012018        0x9 libraries\gd32_drivers\drv_usart.o
 *fill*         0x08012021        0x3 00000000
 .rodata.__FUNCTION__.8
                0x08012024        0xb libraries\gd32_drivers\drv_usart.o
 *fill*         0x0801202f        0x1 00000000
 .rodata.__FUNCTION__.7
                0x08012030        0xb libraries\gd32_drivers\drv_usart.o
 *fill*         0x0801203b        0x1 00000000
 .rodata.__FUNCTION__.6
                0x0801203c       0x10 libraries\gd32_drivers\drv_usart.o
 .rodata.__FUNCTION__.5
                0x0801204c       0x14 libraries\gd32_drivers\drv_usart.o
 .rodata.__FUNCTION__.4
                0x08012060       0x12 libraries\gd32_drivers\drv_usart.o
 *fill*         0x08012072        0x2 00000000
 .rodata.__FUNCTION__.3
                0x08012074        0xf libraries\gd32_drivers\drv_usart.o
 *fill*         0x08012083        0x1 00000000
 .rodata.__FUNCTION__.2
                0x08012084        0xf libraries\gd32_drivers\drv_usart.o
 *fill*         0x08012093        0x1 00000000
 .rodata.__FUNCTION__.1
                0x08012094       0x12 libraries\gd32_drivers\drv_usart.o
 *fill*         0x080120a6        0x2 00000000
 .rodata.__FUNCTION__.0
                0x080120a8       0x13 libraries\gd32_drivers\drv_usart.o
 *fill*         0x080120bb        0x1 00000000
 .rodata.__FUNCTION__.6
                0x080120bc       0x13 build\kernel\components\drivers\ipc\dataqueue.o
 *fill*         0x080120cf        0x1 00000000
 .rodata.__FUNCTION__.5
                0x080120d0       0x13 build\kernel\components\drivers\ipc\dataqueue.o
 *fill*         0x080120e3        0x1 00000000
 .rodata.__FUNCTION__.4
                0x080120e4       0x12 build\kernel\components\drivers\ipc\dataqueue.o
 *fill*         0x080120f6        0x2 00000000
 .rodata.__FUNCTION__.3
                0x080120f8       0x13 build\kernel\components\drivers\ipc\dataqueue.o
 *fill*         0x0801210b        0x1 00000000
 .rodata.__FUNCTION__.2
                0x0801210c       0x14 build\kernel\components\drivers\ipc\dataqueue.o
 .rodata.__FUNCTION__.1
                0x08012120       0x15 build\kernel\components\drivers\ipc\dataqueue.o
 *fill*         0x08012135        0x3 00000000
 .rodata.__FUNCTION__.0
                0x08012138       0x12 build\kernel\components\drivers\ipc\dataqueue.o
 *fill*         0x0801214a        0x2 00000000
 .rodata.__FUNCTION__.10
                0x0801214c       0x18 build\kernel\components\drivers\ipc\workqueue.o
 .rodata.__FUNCTION__.0
                0x08012164       0x1b build\kernel\components\drivers\ipc\workqueue.o
 *fill*         0x0801217f        0x1 00000000
 .rodata.__FUNCTION__.2
                0x08012180       0x13 build\kernel\components\drivers\ipc\completion.o
 *fill*         0x08012193        0x1 00000000
 .rodata.__FUNCTION__.1
                0x08012194       0x13 build\kernel\components\drivers\ipc\completion.o
 *fill*         0x080121a7        0x1 00000000
 .rodata.__FUNCTION__.0
                0x080121a8       0x13 build\kernel\components\drivers\ipc\completion.o
 *fill*         0x080121bb        0x1 00000000
 .rodata.__FUNCTION__.9
                0x080121bc        0xa build\kernel\components\drivers\misc\pin.o
 *fill*         0x080121c6        0x2 00000000
 .rodata.__FUNCTION__.8
                0x080121c8        0xb build\kernel\components\drivers\misc\pin.o
 *fill*         0x080121d3        0x1 00000000
 .rodata.__FUNCTION__.7
                0x080121d4        0xd build\kernel\components\drivers\misc\pin.o
 *fill*         0x080121e1        0x3 00000000
 .rodata.__FUNCTION__.6
                0x080121e4       0x12 build\kernel\components\drivers\misc\pin.o
 *fill*         0x080121f6        0x2 00000000
 .rodata.__FUNCTION__.4
                0x080121f8       0x12 build\kernel\components\drivers\misc\pin.o
 *fill*         0x0801220a        0x2 00000000
 .rodata.__FUNCTION__.3
                0x0801220c        0xc build\kernel\components\drivers\misc\pin.o
 .rodata.__FUNCTION__.2
                0x08012218        0xd build\kernel\components\drivers\misc\pin.o
 *fill*         0x08012225        0x3 00000000
 .rodata.__FUNCTION__.15
                0x08012228       0x1d build\kernel\components\drivers\serial\serial.o
 *fill*         0x08012245        0x3 00000000
 .rodata.__FUNCTION__.14
                0x08012248       0x1d build\kernel\components\drivers\serial\serial.o
 *fill*         0x08012265        0x3 00000000
 .rodata.__FUNCTION__.13
                0x08012268       0x1d build\kernel\components\drivers\serial\serial.o
 *fill*         0x08012285        0x3 00000000
 .rodata.__FUNCTION__.12
                0x08012288        0xf build\kernel\components\drivers\serial\serial.o
 *fill*         0x08012297        0x1 00000000
 .rodata.__FUNCTION__.11
                0x08012298        0xf build\kernel\components\drivers\serial\serial.o
 *fill*         0x080122a7        0x1 00000000
 .rodata.__FUNCTION__.10
                0x080122a8       0x10 build\kernel\components\drivers\serial\serial.o
 .rodata.__FUNCTION__.9
                0x080122b8        0xf build\kernel\components\drivers\serial\serial.o
 *fill*         0x080122c7        0x1 00000000
 .rodata.__FUNCTION__.8
                0x080122c8        0xf build\kernel\components\drivers\serial\serial.o
 *fill*         0x080122d7        0x1 00000000
 .rodata.__FUNCTION__.7
                0x080122d8        0xf build\kernel\components\drivers\serial\serial.o
 *fill*         0x080122e7        0x1 00000000
 .rodata.__FUNCTION__.6
                0x080122e8       0x10 build\kernel\components\drivers\serial\serial.o
 .rodata.__FUNCTION__.5
                0x080122f8       0x10 build\kernel\components\drivers\serial\serial.o
 .rodata.__FUNCTION__.4
                0x08012308        0xf build\kernel\components\drivers\serial\serial.o
 *fill*         0x08012317        0x1 00000000
 .rodata.__FUNCTION__.3
                0x08012318       0x10 build\kernel\components\drivers\serial\serial.o
 .rodata.__FUNCTION__.2
                0x08012328       0x12 build\kernel\components\drivers\serial\serial.o
 *fill*         0x0801233a        0x2 00000000
 .rodata.__FUNCTION__.1
                0x0801233c       0x16 build\kernel\components\drivers\serial\serial.o
 *fill*         0x08012352        0x2 00000000
 .rodata.__FUNCTION__.0
                0x08012354       0x11 build\kernel\components\drivers\serial\serial.o
 *fill*         0x08012365        0x3 00000000
 .rodata.__FUNCTION__.8
                0x08012368       0x11 build\kernel\components\drivers\spi\spi_core.o
 *fill*         0x08012379        0x3 00000000
 .rodata.__FUNCTION__.6
                0x0801237c       0x16 build\kernel\components\drivers\spi\spi_core.o
 *fill*         0x08012392        0x2 00000000
 .rodata.__FUNCTION__.5
                0x08012394       0x10 build\kernel\components\drivers\spi\spi_core.o
 .rodata.__FUNCTION__.4
                0x080123a4       0x18 build\kernel\components\drivers\spi\spi_core.o
 .rodata.__FUNCTION__.5
                0x080123bc       0x15 build\kernel\components\drivers\spi\spi_dev.o
 *fill*         0x080123d1        0x3 00000000
 .rodata.__FUNCTION__.4
                0x080123d4       0x16 build\kernel\components\drivers\spi\spi_dev.o
 *fill*         0x080123ea        0x2 00000000
 .rodata.__FUNCTION__.3
                0x080123ec       0x17 build\kernel\components\drivers\spi\spi_dev.o
 *fill*         0x08012403        0x1 00000000
 .rodata.__FUNCTION__.2
                0x08012404       0x14 build\kernel\components\drivers\spi\spi_dev.o
 .rodata.__FUNCTION__.1
                0x08012418       0x15 build\kernel\components\drivers\spi\spi_dev.o
 *fill*         0x0801242d        0x3 00000000
 .rodata.__FUNCTION__.0
                0x08012430       0x16 build\kernel\components\drivers\spi\spi_dev.o
 *fill*         0x08012446        0x2 00000000
 .rodata.spi_bit_bus_ops
                0x08012448        0x8 build\kernel\components\drivers\spi\spi-bit-ops.o
 .rodata.__FUNCTION__.5
                0x08012450       0x12 build\kernel\components\drivers\spi\spi-bit-ops.o
 *fill*         0x08012462        0x2 00000000
 .rodata.__FUNCTION__.4
                0x08012464        0xd build\kernel\components\drivers\spi\spi-bit-ops.o
 *fill*         0x08012471        0x3 00000000
 .rodata.__FUNCTION__.3
                0x08012474       0x15 build\kernel\components\drivers\spi\spi-bit-ops.o
 *fill*         0x08012489        0x3 00000000
 .rodata.__FUNCTION__.2
                0x0801248c       0x16 build\kernel\components\drivers\spi\spi-bit-ops.o
 *fill*         0x080124a2        0x2 00000000
 .rodata.__FUNCTION__.1
                0x080124a4       0x15 build\kernel\components\drivers\spi\spi-bit-ops.o
 *fill*         0x080124b9        0x3 00000000
 .rodata.__FUNCTION__.0
                0x080124bc       0x16 build\kernel\components\drivers\spi\spi-bit-ops.o
 *fill*         0x080124d2        0x2 00000000
 .rodata._ctype_
                0x080124d4      0x101 d:/keil_v5/os/rtthread/env-windows-v1.3.5/tools/gnu_gcc/arm_gcc/mingw/bin/../lib/gcc/arm-none-eabi/10.3.1/../../../../arm-none-eabi/lib/thumb/v7e-m+fp/hard\libc.a(lib_a-ctype_.o)
                0x080124d4                _ctype_
 *(.glue_7)
 .glue_7        0x080125d5        0x0 linker stubs
 *(.glue_7t)
 .glue_7t       0x080125d5        0x0 linker stubs
 *(.gnu.linkonce.t*)
                0x080125d8                . = ALIGN (0x4)
 *fill*         0x080125d5        0x3 00000000
                0x080125d8                __fsymtab_start = .
 *(FSymTab)
 FSymTab        0x080125d8        0xc build\packages\dac7811\dac7811.o
                0x080125d8                __fsym_dac7811_set
 FSymTab        0x080125e4       0x24 build\kernel\components\finsh\msh.o
                0x080125e4                __fsym_help
                0x080125f0                __fsym_ps
                0x080125fc                __fsym_free
 FSymTab        0x08012608       0x84 build\kernel\components\finsh\cmd.o
                0x08012608                __fsym_clear
                0x08012614                __fsym_version
                0x08012620                __fsym_list_thread
                0x0801262c                __fsym_list_sem
                0x08012638                __fsym_list_event
                0x08012644                __fsym_list_mutex
                0x08012650                __fsym_list_mailbox
                0x0801265c                __fsym_list_msgqueue
                0x08012668                __fsym_list_mempool
                0x08012674                __fsym_list_timer
                0x08012680                __fsym_list_device
                0x0801268c                __fsymtab_end = .
                0x0801268c                . = ALIGN (0x4)
                0x0801268c                __vsymtab_start = .
 *(VSymTab)
                0x0801268c                __vsymtab_end = .
                0x0801268c                . = ALIGN (0x4)
                0x0801268c                . = ALIGN (0x4)
                0x0801268c                __rt_init_start = .
 *(SORT_BY_NAME(.rti_fn*))
 .rti_fn.0      0x0801268c        0x4 build\kernel\src\components.o
                0x0801268c                __rt_init_rti_start
 .rti_fn.0.end  0x08012690        0x4 build\kernel\src\components.o
                0x08012690                __rt_init_rti_board_start
 .rti_fn.1      0x08012694        0x4 build\kernel\components\utilities\ulog\ulog.o
                0x08012694                __rt_init_ulog_init
 .rti_fn.1      0x08012698        0x4 libraries\gd32_drivers\drv_gpio.o
                0x08012698                __rt_init_rt_hw_pin_init
 .rti_fn.1      0x0801269c        0x4 libraries\gd32_drivers\drv_soft_spi.o
                0x0801269c                __rt_init_rt_soft_spi_init
 .rti_fn.1      0x080126a0        0x4 libraries\gd32_drivers\drv_usart.o
                0x080126a0                __rt_init_gd32_hw_usart_init
 .rti_fn.1.end  0x080126a4        0x4 build\kernel\src\components.o
                0x080126a4                __rt_init_rti_board_end
 .rti_fn.2      0x080126a8        0x4 build\applications\rs232_link.o
                0x080126a8                __rt_init_rs232_link
 .rti_fn.2      0x080126ac        0x4 build\kernel\components\utilities\ulog\backend\console_be.o
                0x080126ac                __rt_init_ulog_console_backend_init
 .rti_fn.2      0x080126b0        0x4 build\kernel\components\drivers\ipc\workqueue.o
                0x080126b0                __rt_init_rt_work_sys_workqueue_init
 .rti_fn.3      0x080126b4        0x4 build\packages\ad7190\ad7190.o
                0x080126b4                __rt_init_ad7190_init
 .rti_fn.3      0x080126b8        0x4 build\packages\ad983x\ad983x.o
                0x080126b8                __rt_init_ad983x_init
 .rti_fn.3      0x080126bc        0x4 build\packages\dac7811\dac7811.o
                0x080126bc                __rt_init_ad7811_init
 .rti_fn.6      0x080126c0        0x4 build\kernel\components\finsh\shell.o
                0x080126c0                __rt_init_finsh_system_init
 .rti_fn.6.end  0x080126c4        0x4 build\kernel\src\components.o
                0x080126c4                __rt_init_rti_end
                0x080126c8                __rt_init_end = .
                0x080126c8                . = ALIGN (0x4)
                0x080126c8                . = ALIGN (0x4)
                0x080126c8                _etext = .
                0x080126c8                __exidx_start = .

.vfp11_veneer   0x080126c8        0x0
 .vfp11_veneer  0x080126c8        0x0 linker stubs

.v4_bx          0x080126c8        0x0
 .v4_bx         0x080126c8        0x0 linker stubs

.init           0x080126c8        0x4
 .init          0x080126c8        0x4 d:/keil_v5/os/rtthread/env-windows-v1.3.5/tools/gnu_gcc/arm_gcc/mingw/bin/../lib/gcc/arm-none-eabi/10.3.1/thumb/v7e-m+fp/hard/crti.o
                0x080126c8                _init

.fini           0x080126cc        0x4
 .fini          0x080126cc        0x4 d:/keil_v5/os/rtthread/env-windows-v1.3.5/tools/gnu_gcc/arm_gcc/mingw/bin/../lib/gcc/arm-none-eabi/10.3.1/thumb/v7e-m+fp/hard/crti.o
                0x080126cc                _fini

.iplt           0x080126d0        0x0
 .iplt          0x080126d0        0x0 build\applications\rs232_link.o

.rel.dyn        0x080126d0        0x0
 .rel.iplt      0x080126d0        0x0 build\applications\rs232_link.o

.ARM.exidx      0x080126d0        0x0
 *(.ARM.exidx* .gnu.linkonce.armexidx.*)
                0x080126d0                _sidata = .
                0x080126d0                __exidx_end = .

.data           0x20000000      0x5a0 load address 0x080126d0
                0x20000000                . = ALIGN (0x4)
                0x20000000                _sdata = .
 *(.data)
 *(.data.*)
 .data.cnt      0x20000000        0x1 build\packages\ad7190\ad7190.o
                0x20000000                cnt
 *fill*         0x20000001        0x3 
 .data._object_container
                0x20000004       0xa0 build\kernel\src\object.o
 .data._rt_thread_defunct
                0x200000a4        0x8 build\kernel\src\idle.o
 .data.SystemCoreClock
                0x200000ac        0x4 libraries\GD32F30x_Firmware_Library\CMSIS\GD\GD32F30x\Source\system_gd32f30x.o
                0x200000ac                SystemCoreClock
 .data.pin_irq_hdr_tab
                0x200000b0       0xc0 libraries\gd32_drivers\drv_gpio.o
                0x200000b0                pin_irq_hdr_tab
 .data._impure_ptr
                0x20000170        0x4 d:/keil_v5/os/rtthread/env-windows-v1.3.5/tools/gnu_gcc/arm_gcc/mingw/bin/../lib/gcc/arm-none-eabi/10.3.1/../../../../arm-none-eabi/lib/thumb/v7e-m+fp/hard\libc.a(lib_a-impure.o)
                0x20000170                _impure_ptr
 *fill*         0x20000174        0x4 
 .data.impure_data
                0x20000178      0x428 d:/keil_v5/os/rtthread/env-windows-v1.3.5/tools/gnu_gcc/arm_gcc/mingw/bin/../lib/gcc/arm-none-eabi/10.3.1/../../../../arm-none-eabi/lib/thumb/v7e-m+fp/hard\libc.a(lib_a-impure.o)
 *(.gnu.linkonce.d*)
                0x200005a0                . = ALIGN (0x4)
                0x200005a0                _edata = .

.igot.plt       0x200005a0        0x0 load address 0x08012c70
 .igot.plt      0x200005a0        0x0 build\applications\rs232_link.o

.stack          0x200005a0      0x200 load address 0x08012c70
                0x200007a0                . = (. + _system_stack_size)
 *fill*         0x200005a0      0x200 
                0x200007a0                . = ALIGN (0x4)
                0x200007a0                _estack = .
                0x200007a0                __bss_start = .

.bss            0x200007a0      0xd38 load address 0x08012e70
                0x200007a0                . = ALIGN (0x4)
                0x200007a0                _sbss = .
 *(.bss)
 *(.bss.*)
 .bss.serial    0x200007a0        0x4 build\applications\rs232_link.o
 .bss.rx_sem    0x200007a4       0x20 build\applications\rs232_link.o
 .bss.tx_sem    0x200007c4       0x20 build\applications\rs232_link.o
 .bss.cobs_handler
                0x200007e4       0x4c build\applications\rs232_link.o
                0x200007e4                cobs_handler
 .bss.rx_buffer
                0x20000830       0x40 build\applications\rs232_link.o
 .bss.rs232_tx_msg_pool
                0x20000870       0x20 build\applications\rs232_link.o
 .bss.rs232_tx_msg_queue
                0x20000890       0x3c build\applications\rs232_link.o
 .bss.encode_handler
                0x200008cc      0x210 build\applications\rs232_link.o
                0x200008cc                encode_handler
 .bss.spi_dev   0x20000adc        0x4 build\packages\ad7190\ad7190.o
 .bss.ad7190_data
                0x20000ae0        0x8 build\packages\ad7190\ad7190.o
                0x20000ae0                ad7190_data
 .bss.ad7190_buf
                0x20000ae8      0x198 build\packages\ad7190\ad7190.o
                0x20000ae8                ad7190_buf
 .bss.buf_index
                0x20000c80        0x1 build\packages\ad7190\ad7190.o
 *fill*         0x20000c81        0x3 
 .bss.spi_dev   0x20000c84        0xc build\packages\ad983x\ad983x.o
 .bss.spi_dev   0x20000c90        0x4 build\packages\dac7811\dac7811.o
 .bss.rt_thread_suspend_hook
                0x20000c94        0x4 build\kernel\src\thread.o
 .bss.rt_thread_resume_hook
                0x20000c98        0x4 build\kernel\src\thread.o
 .bss.rt_thread_inited_hook
                0x20000c9c        0x4 build\kernel\src\thread.o
 .bss.rt_object_attach_hook
                0x20000ca0        0x4 build\kernel\src\object.o
 .bss.rt_object_detach_hook
                0x20000ca4        0x4 build\kernel\src\object.o
 .bss.rt_object_trytake_hook
                0x20000ca8        0x4 build\kernel\src\object.o
                0x20000ca8                rt_object_trytake_hook
 .bss.rt_object_take_hook
                0x20000cac        0x4 build\kernel\src\object.o
                0x20000cac                rt_object_take_hook
 .bss.rt_object_put_hook
                0x20000cb0        0x4 build\kernel\src\object.o
                0x20000cb0                rt_object_put_hook
 .bss._timer_list
                0x20000cb4        0x8 build\kernel\src\timer.o
 .bss.rt_timer_enter_hook
                0x20000cbc        0x4 build\kernel\src\timer.o
 .bss.rt_timer_exit_hook
                0x20000cc0        0x4 build\kernel\src\timer.o
 .bss.random_nr.2
                0x20000cc4        0x4 build\kernel\src\timer.o
 .bss.idle      0x20000cc8       0x80 build\kernel\src\idle.o
 .bss.rt_thread_stack
                0x20000d48      0x100 build\kernel\src\idle.o
 .bss.idle_hook_list
                0x20000e48       0x10 build\kernel\src\idle.o
 .bss.rt_thread_priority_table
                0x20000e58      0x100 build\kernel\src\scheduler.o
                0x20000e58                rt_thread_priority_table
 .bss.rt_thread_ready_priority_group
                0x20000f58        0x4 build\kernel\src\scheduler.o
                0x20000f58                rt_thread_ready_priority_group
 .bss.rt_scheduler_lock_nest
                0x20000f5c        0x2 build\kernel\src\scheduler.o
 *fill*         0x20000f5e        0x2 
 .bss.rt_current_thread
                0x20000f60        0x4 build\kernel\src\scheduler.o
                0x20000f60                rt_current_thread
 .bss.rt_current_priority
                0x20000f64        0x1 build\kernel\src\scheduler.o
                0x20000f64                rt_current_priority
 *fill*         0x20000f65        0x3 
 .bss.rt_scheduler_hook
                0x20000f68        0x4 build\kernel\src\scheduler.o
 .bss.rt_scheduler_switch_hook
                0x20000f6c        0x4 build\kernel\src\scheduler.o
 .bss.rt_tick   0x20000f70        0x4 build\kernel\src\clock.o
 .bss.rt_tick_hook
                0x20000f74        0x4 build\kernel\src\clock.o
 .bss.rt_interrupt_enter_hook
                0x20000f78        0x4 build\kernel\src\irq.o
 .bss.rt_interrupt_leave_hook
                0x20000f7c        0x4 build\kernel\src\irq.o
 .bss.rt_interrupt_nest
                0x20000f80        0x1 build\kernel\src\irq.o
                0x20000f80                rt_interrupt_nest
 *fill*         0x20000f81        0x3 
 .bss.__rt_errno
                0x20000f84        0x4 build\kernel\src\kservice.o
 .bss._console_device
                0x20000f88        0x4 build\kernel\src\kservice.o
 .bss.rt_malloc_hook
                0x20000f8c        0x4 build\kernel\src\kservice.o
 .bss.rt_free_hook
                0x20000f90        0x4 build\kernel\src\kservice.o
 .bss._lock     0x20000f94       0x24 build\kernel\src\kservice.o
 .bss.system_heap
                0x20000fb8        0x4 build\kernel\src\kservice.o
 .bss.rt_assert_hook
                0x20000fbc        0x4 build\kernel\src\kservice.o
                0x20000fbc                rt_assert_hook
 .bss.rt_log_buf.2
                0x20000fc0       0x80 build\kernel\src\kservice.o
 .bss.rt_interrupt_from_thread
                0x20001040        0x4 build\kernel\libcpu\arm\cortex-m4\cpuport.o
                0x20001040                rt_interrupt_from_thread
 .bss.rt_interrupt_to_thread
                0x20001044        0x4 build\kernel\libcpu\arm\cortex-m4\cpuport.o
                0x20001044                rt_interrupt_to_thread
 .bss.rt_thread_switch_interrupt_flag
                0x20001048        0x4 build\kernel\libcpu\arm\cortex-m4\cpuport.o
                0x20001048                rt_thread_switch_interrupt_flag
 .bss.rt_exception_hook
                0x2000104c        0x4 build\kernel\libcpu\arm\cortex-m4\cpuport.o
 .bss._syscall_table_begin
                0x20001050        0x4 build\kernel\components\finsh\shell.o
                0x20001050                _syscall_table_begin
 .bss._syscall_table_end
                0x20001054        0x4 build\kernel\components\finsh\shell.o
                0x20001054                _syscall_table_end
 .bss.shell     0x20001058        0x4 build\kernel\components\finsh\shell.o
                0x20001058                shell
 .bss.finsh_prompt_custom
                0x2000105c        0x4 build\kernel\components\finsh\shell.o
 .bss.finsh_prompt.8
                0x20001060       0x81 build\kernel\components\finsh\shell.o
 *fill*         0x200010e1        0x3 
 .bss.ulog      0x200010e4       0xb4 build\kernel\components\utilities\ulog\ulog.o
 .bss.log_len.12
                0x20001198        0x4 build\kernel\components\utilities\ulog\ulog.o
 .bss.newline_len.11
                0x2000119c        0x4 build\kernel\components\utilities\ulog\ulog.o
 .bss.tick_len.10
                0x200011a0        0x4 build\kernel\components\utilities\ulog\ulog.o
 .bss.fmt_result.9
                0x200011a4        0x4 build\kernel\components\utilities\ulog\ulog.o
 .bss.ulog_voutput_recursion.7
                0x200011a8        0x4 build\kernel\components\utilities\ulog\ulog.o
 .bss.console   0x200011ac       0x28 build\kernel\components\utilities\ulog\backend\console_be.o
 .bss.spi_obj   0x200011d4      0x1f8 libraries\gd32_drivers\drv_soft_spi.o
 .bss.uart_obj  0x200013cc       0xc0 libraries\gd32_drivers\drv_usart.o
 .bss.sys_workq
                0x2000148c        0x4 build\kernel\components\drivers\ipc\workqueue.o
 .bss._hw_pin   0x20001490       0x44 build\kernel\components\drivers\misc\pin.o
 .bss.already_output.16
                0x200014d4        0x4 build\kernel\components\drivers\serial\serial.o
 *(COMMON)
                0x200014d8                . = ALIGN (0x4)
                0x200014d8                _ebss = .
 *(.bss.init)
                0x200014d8                __bss_end = .
                0x200014d8                _end = .

.stab
 *(.stab)

.stabstr
 *(.stabstr)

.stab.excl
 *(.stab.excl)

.stab.exclstr
 *(.stab.exclstr)

.stab.index
 *(.stab.index)

.stab.indexstr
 *(.stab.indexstr)

.comment        0x00000000       0x49
 *(.comment)
 .comment       0x00000000       0x49 build\applications\rs232_link.o
                                 0x4a (size before relaxing)
 .comment       0x00000049       0x4a build\applications\main.o
 .comment       0x00000049       0x4a build\board\board.o
 .comment       0x00000049       0x4a build\packages\ad7190\ad7190.o
 .comment       0x00000049       0x4a build\packages\ad983x\ad983x.o
 .comment       0x00000049       0x4a build\packages\cobs\cobs.o
 .comment       0x00000049       0x4a build\packages\dac7811\dac7811.o
 .comment       0x00000049       0x4a build\kernel\src\mem.o
 .comment       0x00000049       0x4a build\kernel\src\thread.o
 .comment       0x00000049       0x4a build\kernel\src\object.o
 .comment       0x00000049       0x4a build\kernel\src\timer.o
 .comment       0x00000049       0x4a build\kernel\src\idle.o
 .comment       0x00000049       0x4a build\kernel\src\components.o
 .comment       0x00000049       0x4a build\kernel\src\device.o
 .comment       0x00000049       0x4a build\kernel\src\scheduler.o
 .comment       0x00000049       0x4a build\kernel\src\ipc.o
 .comment       0x00000049       0x4a build\kernel\src\clock.o
 .comment       0x00000049       0x4a build\kernel\src\irq.o
 .comment       0x00000049       0x4a build\kernel\src\kservice.o
 .comment       0x00000049       0x4a build\kernel\libcpu\arm\cortex-m4\cpuport.o
 .comment       0x00000049       0x4a build\kernel\components\finsh\shell.o
 .comment       0x00000049       0x4a build\kernel\components\finsh\msh.o
 .comment       0x00000049       0x4a build\kernel\components\finsh\cmd.o
 .comment       0x00000049       0x4a build\kernel\components\libc\compilers\newlib\syscalls.o
 .comment       0x00000049       0x4a build\kernel\components\utilities\ulog\ulog.o
 .comment       0x00000049       0x4a build\kernel\components\utilities\ulog\backend\console_be.o
 .comment       0x00000049       0x4a libraries\GD32F30x_Firmware_Library\CMSIS\GD\GD32F30x\Source\system_gd32f30x.o
 .comment       0x00000049       0x4a libraries\GD32F30x_Firmware_Library\GD32F30x_standard_peripheral\Source\gd32f30x_rcu.o
 .comment       0x00000049       0x4a libraries\GD32F30x_Firmware_Library\GD32F30x_standard_peripheral\Source\gd32f30x_dma.o
 .comment       0x00000049       0x4a libraries\GD32F30x_Firmware_Library\GD32F30x_standard_peripheral\Source\gd32f30x_usart.o
 .comment       0x00000049       0x4a libraries\GD32F30x_Firmware_Library\GD32F30x_standard_peripheral\Source\gd32f30x_exti.o
 .comment       0x00000049       0x4a libraries\GD32F30x_Firmware_Library\GD32F30x_standard_peripheral\Source\gd32f30x_gpio.o
 .comment       0x00000049       0x4a libraries\GD32F30x_Firmware_Library\GD32F30x_standard_peripheral\Source\gd32f30x_misc.o
 .comment       0x00000049       0x4a libraries\gd32_drivers\drv_gpio.o
 .comment       0x00000049       0x4a libraries\gd32_drivers\drv_soft_spi.o
 .comment       0x00000049       0x4a libraries\gd32_drivers\drv_usart.o
 .comment       0x00000049       0x4a build\kernel\components\drivers\ipc\dataqueue.o
 .comment       0x00000049       0x4a build\kernel\components\drivers\ipc\workqueue.o
 .comment       0x00000049       0x4a build\kernel\components\drivers\ipc\completion.o
 .comment       0x00000049       0x4a build\kernel\components\drivers\misc\pin.o
 .comment       0x00000049       0x4a build\kernel\components\drivers\serial\serial.o
 .comment       0x00000049       0x4a build\kernel\components\drivers\spi\spi_core.o
 .comment       0x00000049       0x4a build\kernel\components\drivers\spi\spi_dev.o
 .comment       0x00000049       0x4a build\kernel\components\drivers\spi\spi-bit-ops.o

.ARM.attributes
                0x00000000       0x30
 .ARM.attributes
                0x00000000       0x1e d:/keil_v5/os/rtthread/env-windows-v1.3.5/tools/gnu_gcc/arm_gcc/mingw/bin/../lib/gcc/arm-none-eabi/10.3.1/thumb/v7e-m+fp/hard/crti.o
 .ARM.attributes
                0x0000001e       0x34 build\applications\rs232_link.o
 .ARM.attributes
                0x00000052       0x34 build\applications\main.o
 .ARM.attributes
                0x00000086       0x21 libraries\GD32F30x_Firmware_Library\CMSIS\GD\GD32F30x\Source\GCC\startup_gd32f30x_hd.o
 .ARM.attributes
                0x000000a7       0x34 build\board\board.o
 .ARM.attributes
                0x000000db       0x34 build\packages\ad7190\ad7190.o
 .ARM.attributes
                0x0000010f       0x34 build\packages\ad983x\ad983x.o
 .ARM.attributes
                0x00000143       0x34 build\packages\cobs\cobs.o
 .ARM.attributes
                0x00000177       0x34 build\packages\dac7811\dac7811.o
 .ARM.attributes
                0x000001ab       0x34 build\kernel\src\mem.o
 .ARM.attributes
                0x000001df       0x34 build\kernel\src\thread.o
 .ARM.attributes
                0x00000213       0x34 build\kernel\src\object.o
 .ARM.attributes
                0x00000247       0x34 build\kernel\src\timer.o
 .ARM.attributes
                0x0000027b       0x34 build\kernel\src\idle.o
 .ARM.attributes
                0x000002af       0x34 build\kernel\src\components.o
 .ARM.attributes
                0x000002e3       0x34 build\kernel\src\device.o
 .ARM.attributes
                0x00000317       0x34 build\kernel\src\scheduler.o
 .ARM.attributes
                0x0000034b       0x34 build\kernel\src\ipc.o
 .ARM.attributes
                0x0000037f       0x34 build\kernel\src\clock.o
 .ARM.attributes
                0x000003b3       0x34 build\kernel\src\irq.o
 .ARM.attributes
                0x000003e7       0x34 build\kernel\src\kservice.o
 .ARM.attributes
                0x0000041b       0x25 build\kernel\libcpu\arm\cortex-m4\context_gcc.o
 .ARM.attributes
                0x00000440       0x34 build\kernel\libcpu\arm\cortex-m4\cpuport.o
 .ARM.attributes
                0x00000474       0x34 build\kernel\components\finsh\shell.o
 .ARM.attributes
                0x000004a8       0x34 build\kernel\components\finsh\msh.o
 .ARM.attributes
                0x000004dc       0x34 build\kernel\components\finsh\cmd.o
 .ARM.attributes
                0x00000510       0x34 build\kernel\components\libc\compilers\newlib\syscalls.o
 .ARM.attributes
                0x00000544       0x34 build\kernel\components\utilities\ulog\ulog.o
 .ARM.attributes
                0x00000578       0x34 build\kernel\components\utilities\ulog\backend\console_be.o
 .ARM.attributes
                0x000005ac       0x34 libraries\GD32F30x_Firmware_Library\CMSIS\GD\GD32F30x\Source\system_gd32f30x.o
 .ARM.attributes
                0x000005e0       0x34 libraries\GD32F30x_Firmware_Library\GD32F30x_standard_peripheral\Source\gd32f30x_rcu.o
 .ARM.attributes
                0x00000614       0x34 libraries\GD32F30x_Firmware_Library\GD32F30x_standard_peripheral\Source\gd32f30x_dma.o
 .ARM.attributes
                0x00000648       0x34 libraries\GD32F30x_Firmware_Library\GD32F30x_standard_peripheral\Source\gd32f30x_usart.o
 .ARM.attributes
                0x0000067c       0x34 libraries\GD32F30x_Firmware_Library\GD32F30x_standard_peripheral\Source\gd32f30x_exti.o
 .ARM.attributes
                0x000006b0       0x34 libraries\GD32F30x_Firmware_Library\GD32F30x_standard_peripheral\Source\gd32f30x_gpio.o
 .ARM.attributes
                0x000006e4       0x34 libraries\GD32F30x_Firmware_Library\GD32F30x_standard_peripheral\Source\gd32f30x_misc.o
 .ARM.attributes
                0x00000718       0x34 libraries\gd32_drivers\drv_gpio.o
 .ARM.attributes
                0x0000074c       0x34 libraries\gd32_drivers\drv_soft_spi.o
 .ARM.attributes
                0x00000780       0x34 libraries\gd32_drivers\drv_usart.o
 .ARM.attributes
                0x000007b4       0x34 build\kernel\components\drivers\ipc\dataqueue.o
 .ARM.attributes
                0x000007e8       0x34 build\kernel\components\drivers\ipc\workqueue.o
 .ARM.attributes
                0x0000081c       0x34 build\kernel\components\drivers\ipc\completion.o
 .ARM.attributes
                0x00000850       0x34 build\kernel\components\drivers\misc\pin.o
 .ARM.attributes
                0x00000884       0x34 build\kernel\components\drivers\serial\serial.o
 .ARM.attributes
                0x000008b8       0x34 build\kernel\components\drivers\spi\spi_core.o
 .ARM.attributes
                0x000008ec       0x34 build\kernel\components\drivers\spi\spi_dev.o
 .ARM.attributes
                0x00000920       0x34 build\kernel\components\drivers\spi\spi-bit-ops.o
 .ARM.attributes
                0x00000954       0x34 d:/keil_v5/os/rtthread/env-windows-v1.3.5/tools/gnu_gcc/arm_gcc/mingw/bin/../lib/gcc/arm-none-eabi/10.3.1/../../../../arm-none-eabi/lib/thumb/v7e-m+fp/hard\libc.a(lib_a-atoi.o)
 .ARM.attributes
                0x00000988       0x34 d:/keil_v5/os/rtthread/env-windows-v1.3.5/tools/gnu_gcc/arm_gcc/mingw/bin/../lib/gcc/arm-none-eabi/10.3.1/../../../../arm-none-eabi/lib/thumb/v7e-m+fp/hard\libc.a(lib_a-impure.o)
 .ARM.attributes
                0x000009bc       0x34 d:/keil_v5/os/rtthread/env-windows-v1.3.5/tools/gnu_gcc/arm_gcc/mingw/bin/../lib/gcc/arm-none-eabi/10.3.1/../../../../arm-none-eabi/lib/thumb/v7e-m+fp/hard\libc.a(lib_a-memcmp.o)
 .ARM.attributes
                0x000009f0       0x34 d:/keil_v5/os/rtthread/env-windows-v1.3.5/tools/gnu_gcc/arm_gcc/mingw/bin/../lib/gcc/arm-none-eabi/10.3.1/../../../../arm-none-eabi/lib/thumb/v7e-m+fp/hard\libc.a(lib_a-memset.o)
 .ARM.attributes
                0x00000a24       0x1c d:/keil_v5/os/rtthread/env-windows-v1.3.5/tools/gnu_gcc/arm_gcc/mingw/bin/../lib/gcc/arm-none-eabi/10.3.1/../../../../arm-none-eabi/lib/thumb/v7e-m+fp/hard\libc.a(lib_a-strlen.o)
 .ARM.attributes
                0x00000a40       0x34 d:/keil_v5/os/rtthread/env-windows-v1.3.5/tools/gnu_gcc/arm_gcc/mingw/bin/../lib/gcc/arm-none-eabi/10.3.1/../../../../arm-none-eabi/lib/thumb/v7e-m+fp/hard\libc.a(lib_a-strncmp.o)
 .ARM.attributes
                0x00000a74       0x34 d:/keil_v5/os/rtthread/env-windows-v1.3.5/tools/gnu_gcc/arm_gcc/mingw/bin/../lib/gcc/arm-none-eabi/10.3.1/../../../../arm-none-eabi/lib/thumb/v7e-m+fp/hard\libc.a(lib_a-strncpy.o)
 .ARM.attributes
                0x00000aa8       0x34 d:/keil_v5/os/rtthread/env-windows-v1.3.5/tools/gnu_gcc/arm_gcc/mingw/bin/../lib/gcc/arm-none-eabi/10.3.1/../../../../arm-none-eabi/lib/thumb/v7e-m+fp/hard\libc.a(lib_a-strtol.o)
 .ARM.attributes
                0x00000adc       0x34 d:/keil_v5/os/rtthread/env-windows-v1.3.5/tools/gnu_gcc/arm_gcc/mingw/bin/../lib/gcc/arm-none-eabi/10.3.1/../../../../arm-none-eabi/lib/thumb/v7e-m+fp/hard\libc.a(lib_a-ctype_.o)
 .ARM.attributes
                0x00000b10       0x1e d:/keil_v5/os/rtthread/env-windows-v1.3.5/tools/gnu_gcc/arm_gcc/mingw/bin/../lib/gcc/arm-none-eabi/10.3.1/thumb/v7e-m+fp/hard\libgcc.a(_arm_muldivdf3.o)
 .ARM.attributes
                0x00000b2e       0x1e d:/keil_v5/os/rtthread/env-windows-v1.3.5/tools/gnu_gcc/arm_gcc/mingw/bin/../lib/gcc/arm-none-eabi/10.3.1/thumb/v7e-m+fp/hard\libgcc.a(_arm_fixunsdfsi.o)

.debug
 *(.debug)

.line
 *(.line)

.debug_srcinfo
 *(.debug_srcinfo)

.debug_sfnames
 *(.debug_sfnames)

.debug_aranges  0x00000000     0x19d8
 *(.debug_aranges)
 .debug_aranges
                0x00000000       0x68 build\applications\rs232_link.o
 .debug_aranges
                0x00000068       0x20 build\applications\main.o
 .debug_aranges
                0x00000088       0x28 libraries\GD32F30x_Firmware_Library\CMSIS\GD\GD32F30x\Source\GCC\startup_gd32f30x_hd.o
 .debug_aranges
                0x000000b0       0x48 build\board\board.o
 .debug_aranges
                0x000000f8       0x70 build\packages\ad7190\ad7190.o
 .debug_aranges
                0x00000168       0x58 build\packages\ad983x\ad983x.o
 .debug_aranges
                0x000001c0       0x70 build\packages\cobs\cobs.o
 .debug_aranges
                0x00000230       0x38 build\packages\dac7811\dac7811.o
 .debug_aranges
                0x00000268       0x48 build\kernel\src\mem.o
 .debug_aranges
                0x000002b0       0xd0 build\kernel\src\thread.o
 .debug_aranges
                0x00000380       0xa0 build\kernel\src\object.o
 .debug_aranges
                0x00000420       0xb8 build\kernel\src\timer.o
 .debug_aranges
                0x000004d8       0x68 build\kernel\src\idle.o
 .debug_aranges
                0x00000540       0x68 build\kernel\src\components.o
 .debug_aranges
                0x000005a8       0x80 build\kernel\src\device.o
 .debug_aranges
                0x00000628       0x98 build\kernel\src\scheduler.o
 .debug_aranges
                0x000006c0      0x198 build\kernel\src\ipc.o
 .debug_aranges
                0x00000858       0x48 build\kernel\src\clock.o
 .debug_aranges
                0x000008a0       0x40 build\kernel\src\irq.o
 .debug_aranges
                0x000008e0      0x188 build\kernel\src\kservice.o
 .debug_aranges
                0x00000a68       0x20 build\kernel\libcpu\arm\cortex-m4\context_gcc.o
 .debug_aranges
                0x00000a88       0x60 build\kernel\libcpu\arm\cortex-m4\cpuport.o
 .debug_aranges
                0x00000ae8       0x98 build\kernel\components\finsh\shell.o
 .debug_aranges
                0x00000b80       0x60 build\kernel\components\finsh\msh.o
 .debug_aranges
                0x00000be0       0xa0 build\kernel\components\finsh\cmd.o
 .debug_aranges
                0x00000c80       0xf0 build\kernel\components\libc\compilers\newlib\syscalls.o
 .debug_aranges
                0x00000d70       0xe0 build\kernel\components\utilities\ulog\ulog.o
 .debug_aranges
                0x00000e50       0x28 build\kernel\components\utilities\ulog\backend\console_be.o
 .debug_aranges
                0x00000e78       0x38 libraries\GD32F30x_Firmware_Library\CMSIS\GD\GD32F30x\Source\system_gd32f30x.o
 .debug_aranges
                0x00000eb0      0x150 libraries\GD32F30x_Firmware_Library\GD32F30x_standard_peripheral\Source\gd32f30x_rcu.o
 .debug_aranges
                0x00001000       0xf8 libraries\GD32F30x_Firmware_Library\GD32F30x_standard_peripheral\Source\gd32f30x_dma.o
 .debug_aranges
                0x000010f8      0x1a8 libraries\GD32F30x_Firmware_Library\GD32F30x_standard_peripheral\Source\gd32f30x_usart.o
 .debug_aranges
                0x000012a0       0x78 libraries\GD32F30x_Firmware_Library\GD32F30x_standard_peripheral\Source\gd32f30x_exti.o
 .debug_aranges
                0x00001318       0xb0 libraries\GD32F30x_Firmware_Library\GD32F30x_standard_peripheral\Source\gd32f30x_gpio.o
 .debug_aranges
                0x000013c8       0x50 libraries\GD32F30x_Firmware_Library\GD32F30x_standard_peripheral\Source\gd32f30x_misc.o
 .debug_aranges
                0x00001418       0xb0 libraries\gd32_drivers\drv_gpio.o
 .debug_aranges
                0x000014c8       0xa8 libraries\gd32_drivers\drv_soft_spi.o
 .debug_aranges
                0x00001570       0xa8 libraries\gd32_drivers\drv_usart.o
 .debug_aranges
                0x00001618       0x68 build\kernel\components\drivers\ipc\dataqueue.o
 .debug_aranges
                0x00001680       0xc8 build\kernel\components\drivers\ipc\workqueue.o
 .debug_aranges
                0x00001748       0x48 build\kernel\components\drivers\ipc\completion.o
 .debug_aranges
                0x00001790       0x70 build\kernel\components\drivers\misc\pin.o
 .debug_aranges
                0x00001800       0xb0 build\kernel\components\drivers\serial\serial.o
 .debug_aranges
                0x000018b0       0x70 build\kernel\components\drivers\spi\spi_core.o
 .debug_aranges
                0x00001920       0x58 build\kernel\components\drivers\spi\spi_dev.o
 .debug_aranges
                0x00001978       0x60 build\kernel\components\drivers\spi\spi-bit-ops.o

.debug_pubnames
 *(.debug_pubnames)

.debug_info     0x00000000    0x1fa07
 *(.debug_info .gnu.linkonce.wi.*)
 .debug_info    0x00000000      0xe31 build\applications\rs232_link.o
 .debug_info    0x00000e31       0xcd build\applications\main.o
 .debug_info    0x00000efe       0x22 libraries\GD32F30x_Firmware_Library\CMSIS\GD\GD32F30x\Source\GCC\startup_gd32f30x_hd.o
 .debug_info    0x00000f20      0x828 build\board\board.o
 .debug_info    0x00001748      0xdfc build\packages\ad7190\ad7190.o
 .debug_info    0x00002544      0xb60 build\packages\ad983x\ad983x.o
 .debug_info    0x000030a4      0x4f4 build\packages\cobs\cobs.o
 .debug_info    0x00003598      0xc5a build\packages\dac7811\dac7811.o
 .debug_info    0x000041f2      0x681 build\kernel\src\mem.o
 .debug_info    0x00004873      0xc6b build\kernel\src\thread.o
 .debug_info    0x000054de      0x8dd build\kernel\src\object.o
 .debug_info    0x00005dbb      0x99d build\kernel\src\timer.o
 .debug_info    0x00006758      0x69f build\kernel\src\idle.o
 .debug_info    0x00006df7      0x56d build\kernel\src\components.o
 .debug_info    0x00007364      0x907 build\kernel\src\device.o
 .debug_info    0x00007c6b      0x838 build\kernel\src\scheduler.o
 .debug_info    0x000084a3     0x1d99 build\kernel\src\ipc.o
 .debug_info    0x0000a23c      0x4b4 build\kernel\src\clock.o
 .debug_info    0x0000a6f0      0x1b9 build\kernel\src\irq.o
 .debug_info    0x0000a8a9     0x187c build\kernel\src\kservice.o
 .debug_info    0x0000c125       0x26 build\kernel\libcpu\arm\cortex-m4\context_gcc.o
 .debug_info    0x0000c14b      0x449 build\kernel\libcpu\arm\cortex-m4\cpuport.o
 .debug_info    0x0000c594      0xd66 build\kernel\components\finsh\shell.o
 .debug_info    0x0000d2fa      0x657 build\kernel\components\finsh\msh.o
 .debug_info    0x0000d951     0x180e build\kernel\components\finsh\cmd.o
 .debug_info    0x0000f15f     0x17da build\kernel\components\libc\compilers\newlib\syscalls.o
 .debug_info    0x00010939     0x10bc build\kernel\components\utilities\ulog\ulog.o
 .debug_info    0x000119f5      0x649 build\kernel\components\utilities\ulog\backend\console_be.o
 .debug_info    0x0001203e      0x420 libraries\GD32F30x_Firmware_Library\CMSIS\GD\GD32F30x\Source\system_gd32f30x.o
 .debug_info    0x0001245e      0xe20 libraries\GD32F30x_Firmware_Library\GD32F30x_standard_peripheral\Source\gd32f30x_rcu.o
 .debug_info    0x0001327e      0x9d6 libraries\GD32F30x_Firmware_Library\GD32F30x_standard_peripheral\Source\gd32f30x_dma.o
 .debug_info    0x00013c54      0xf22 libraries\GD32F30x_Firmware_Library\GD32F30x_standard_peripheral\Source\gd32f30x_usart.o
 .debug_info    0x00014b76      0x3e0 libraries\GD32F30x_Firmware_Library\GD32F30x_standard_peripheral\Source\gd32f30x_exti.o
 .debug_info    0x00014f56      0x6af libraries\GD32F30x_Firmware_Library\GD32F30x_standard_peripheral\Source\gd32f30x_gpio.o
 .debug_info    0x00015605      0x5b4 libraries\GD32F30x_Firmware_Library\GD32F30x_standard_peripheral\Source\gd32f30x_misc.o
 .debug_info    0x00015bb9     0x1046 libraries\gd32_drivers\drv_gpio.o
 .debug_info    0x00016bff     0x11ea libraries\gd32_drivers\drv_soft_spi.o
 .debug_info    0x00017de9     0x1896 libraries\gd32_drivers\drv_usart.o
 .debug_info    0x0001967f      0x98a build\kernel\components\drivers\ipc\dataqueue.o
 .debug_info    0x0001a009      0xc59 build\kernel\components\drivers\ipc\workqueue.o
 .debug_info    0x0001ac62      0x5ea build\kernel\components\drivers\ipc\completion.o
 .debug_info    0x0001b24c      0xa54 build\kernel\components\drivers\misc\pin.o
 .debug_info    0x0001bca0     0x1312 build\kernel\components\drivers\serial\serial.o
 .debug_info    0x0001cfb2      0xe18 build\kernel\components\drivers\spi\spi_core.o
 .debug_info    0x0001ddca      0xc2b build\kernel\components\drivers\spi\spi_dev.o
 .debug_info    0x0001e9f5     0x1012 build\kernel\components\drivers\spi\spi-bit-ops.o

.debug_abbrev   0x00000000     0x5c4b
 *(.debug_abbrev)
 .debug_abbrev  0x00000000      0x26f build\applications\rs232_link.o
 .debug_abbrev  0x0000026f       0x68 build\applications\main.o
 .debug_abbrev  0x000002d7       0x12 libraries\GD32F30x_Firmware_Library\CMSIS\GD\GD32F30x\Source\GCC\startup_gd32f30x_hd.o
 .debug_abbrev  0x000002e9      0x19a build\board\board.o
 .debug_abbrev  0x00000483      0x31f build\packages\ad7190\ad7190.o
 .debug_abbrev  0x000007a2      0x23e build\packages\ad983x\ad983x.o
 .debug_abbrev  0x000009e0      0x18b build\packages\cobs\cobs.o
 .debug_abbrev  0x00000b6b      0x218 build\packages\dac7811\dac7811.o
 .debug_abbrev  0x00000d83      0x1ed build\kernel\src\mem.o
 .debug_abbrev  0x00000f70      0x223 build\kernel\src\thread.o
 .debug_abbrev  0x00001193      0x224 build\kernel\src\object.o
 .debug_abbrev  0x000013b7      0x277 build\kernel\src\timer.o
 .debug_abbrev  0x0000162e      0x200 build\kernel\src\idle.o
 .debug_abbrev  0x0000182e      0x180 build\kernel\src\components.o
 .debug_abbrev  0x000019ae      0x1b1 build\kernel\src\device.o
 .debug_abbrev  0x00001b5f      0x26b build\kernel\src\scheduler.o
 .debug_abbrev  0x00001dca      0x212 build\kernel\src\ipc.o
 .debug_abbrev  0x00001fdc      0x17c build\kernel\src\clock.o
 .debug_abbrev  0x00002158      0x108 build\kernel\src\irq.o
 .debug_abbrev  0x00002260      0x3aa build\kernel\src\kservice.o
 .debug_abbrev  0x0000260a       0x14 build\kernel\libcpu\arm\cortex-m4\context_gcc.o
 .debug_abbrev  0x0000261e      0x1fa build\kernel\libcpu\arm\cortex-m4\cpuport.o
 .debug_abbrev  0x00002818      0x34e build\kernel\components\finsh\shell.o
 .debug_abbrev  0x00002b66      0x23b build\kernel\components\finsh\msh.o
 .debug_abbrev  0x00002da1      0x2a2 build\kernel\components\finsh\cmd.o
 .debug_abbrev  0x00003043      0x308 build\kernel\components\libc\compilers\newlib\syscalls.o
 .debug_abbrev  0x0000334b      0x319 build\kernel\components\utilities\ulog\ulog.o
 .debug_abbrev  0x00003664      0x194 build\kernel\components\utilities\ulog\backend\console_be.o
 .debug_abbrev  0x000037f8      0x17f libraries\GD32F30x_Firmware_Library\CMSIS\GD\GD32F30x\Source\system_gd32f30x.o
 .debug_abbrev  0x00003977      0x192 libraries\GD32F30x_Firmware_Library\GD32F30x_standard_peripheral\Source\gd32f30x_rcu.o
 .debug_abbrev  0x00003b09      0x1e2 libraries\GD32F30x_Firmware_Library\GD32F30x_standard_peripheral\Source\gd32f30x_dma.o
 .debug_abbrev  0x00003ceb      0x197 libraries\GD32F30x_Firmware_Library\GD32F30x_standard_peripheral\Source\gd32f30x_usart.o
 .debug_abbrev  0x00003e82      0x10a libraries\GD32F30x_Firmware_Library\GD32F30x_standard_peripheral\Source\gd32f30x_exti.o
 .debug_abbrev  0x00003f8c      0x1c0 libraries\GD32F30x_Firmware_Library\GD32F30x_standard_peripheral\Source\gd32f30x_gpio.o
 .debug_abbrev  0x0000414c      0x127 libraries\GD32F30x_Firmware_Library\GD32F30x_standard_peripheral\Source\gd32f30x_misc.o
 .debug_abbrev  0x00004273      0x2e7 libraries\gd32_drivers\drv_gpio.o
 .debug_abbrev  0x0000455a      0x2c4 libraries\gd32_drivers\drv_soft_spi.o
 .debug_abbrev  0x0000481e      0x30f libraries\gd32_drivers\drv_usart.o
 .debug_abbrev  0x00004b2d      0x245 build\kernel\components\drivers\ipc\dataqueue.o
 .debug_abbrev  0x00004d72      0x28c build\kernel\components\drivers\ipc\workqueue.o
 .debug_abbrev  0x00004ffe      0x1b8 build\kernel\components\drivers\ipc\completion.o
 .debug_abbrev  0x000051b6      0x1ad build\kernel\components\drivers\misc\pin.o
 .debug_abbrev  0x00005363      0x28e build\kernel\components\drivers\serial\serial.o
 .debug_abbrev  0x000055f1      0x217 build\kernel\components\drivers\spi\spi_core.o
 .debug_abbrev  0x00005808      0x1ef build\kernel\components\drivers\spi\spi_dev.o
 .debug_abbrev  0x000059f7      0x254 build\kernel\components\drivers\spi\spi-bit-ops.o

.debug_line     0x00000000     0xe832
 *(.debug_line)
 .debug_line    0x00000000      0x301 build\applications\rs232_link.o
 .debug_line    0x00000301      0x164 build\applications\main.o
 .debug_line    0x00000465       0xbb libraries\GD32F30x_Firmware_Library\CMSIS\GD\GD32F30x\Source\GCC\startup_gd32f30x_hd.o
 .debug_line    0x00000520      0x314 build\board\board.o
 .debug_line    0x00000834      0x48b build\packages\ad7190\ad7190.o
 .debug_line    0x00000cbf      0x30e build\packages\ad983x\ad983x.o
 .debug_line    0x00000fcd      0x29b build\packages\cobs\cobs.o
 .debug_line    0x00001268      0x2dc build\packages\dac7811\dac7811.o
 .debug_line    0x00001544      0x4dc build\kernel\src\mem.o
 .debug_line    0x00001a20      0x5b6 build\kernel\src\thread.o
 .debug_line    0x00001fd6      0x43c build\kernel\src\object.o
 .debug_line    0x00002412      0x582 build\kernel\src\timer.o
 .debug_line    0x00002994      0x277 build\kernel\src\idle.o
 .debug_line    0x00002c0b      0x198 build\kernel\src\components.o
 .debug_line    0x00002da3      0x371 build\kernel\src\device.o
 .debug_line    0x00003114      0x42a build\kernel\src\scheduler.o
 .debug_line    0x0000353e     0x14c9 build\kernel\src\ipc.o
 .debug_line    0x00004a07      0x132 build\kernel\src\clock.o
 .debug_line    0x00004b39       0xee build\kernel\src\irq.o
 .debug_line    0x00004c27      0xdff build\kernel\src\kservice.o
 .debug_line    0x00005a26       0xd6 build\kernel\libcpu\arm\cortex-m4\context_gcc.o
 .debug_line    0x00005afc      0x2f9 build\kernel\libcpu\arm\cortex-m4\cpuport.o
 .debug_line    0x00005df5      0x70d build\kernel\components\finsh\shell.o
 .debug_line    0x00006502      0x3eb build\kernel\components\finsh\msh.o
 .debug_line    0x000068ed      0x7fd build\kernel\components\finsh\cmd.o
 .debug_line    0x000070ea      0x5a6 build\kernel\components\libc\compilers\newlib\syscalls.o
 .debug_line    0x00007690      0x98f build\kernel\components\utilities\ulog\ulog.o
 .debug_line    0x0000801f       0xf8 build\kernel\components\utilities\ulog\backend\console_be.o
 .debug_line    0x00008117      0x404 libraries\GD32F30x_Firmware_Library\CMSIS\GD\GD32F30x\Source\system_gd32f30x.o
 .debug_line    0x0000851b      0x922 libraries\GD32F30x_Firmware_Library\GD32F30x_standard_peripheral\Source\gd32f30x_rcu.o
 .debug_line    0x00008e3d      0x71a libraries\GD32F30x_Firmware_Library\GD32F30x_standard_peripheral\Source\gd32f30x_dma.o
 .debug_line    0x00009557      0x856 libraries\GD32F30x_Firmware_Library\GD32F30x_standard_peripheral\Source\gd32f30x_usart.o
 .debug_line    0x00009dad      0x3d5 libraries\GD32F30x_Firmware_Library\GD32F30x_standard_peripheral\Source\gd32f30x_exti.o
 .debug_line    0x0000a182      0x64c libraries\GD32F30x_Firmware_Library\GD32F30x_standard_peripheral\Source\gd32f30x_gpio.o
 .debug_line    0x0000a7ce      0x2f1 libraries\GD32F30x_Firmware_Library\GD32F30x_standard_peripheral\Source\gd32f30x_misc.o
 .debug_line    0x0000aabf      0x642 libraries\gd32_drivers\drv_gpio.o
 .debug_line    0x0000b101      0x661 libraries\gd32_drivers\drv_soft_spi.o
 .debug_line    0x0000b762      0x8e2 libraries\gd32_drivers\drv_usart.o
 .debug_line    0x0000c044      0x51b build\kernel\components\drivers\ipc\dataqueue.o
 .debug_line    0x0000c55f      0x5a7 build\kernel\components\drivers\ipc\workqueue.o
 .debug_line    0x0000cb06      0x20e build\kernel\components\drivers\ipc\completion.o
 .debug_line    0x0000cd14      0x2e7 build\kernel\components\drivers\misc\pin.o
 .debug_line    0x0000cffb      0xae0 build\kernel\components\drivers\serial\serial.o
 .debug_line    0x0000dadb      0x4dd build\kernel\components\drivers\spi\spi_core.o
 .debug_line    0x0000dfb8      0x1e9 build\kernel\components\drivers\spi\spi_dev.o
 .debug_line    0x0000e1a1      0x691 build\kernel\components\drivers\spi\spi-bit-ops.o

.debug_frame    0x00000000     0x6884
 *(.debug_frame)
 .debug_frame   0x00000000      0x180 build\applications\rs232_link.o
 .debug_frame   0x00000180       0x34 build\applications\main.o
 .debug_frame   0x000001b4       0xc8 build\board\board.o
 .debug_frame   0x0000027c      0x19c build\packages\ad7190\ad7190.o
 .debug_frame   0x00000418      0x130 build\packages\ad983x\ad983x.o
 .debug_frame   0x00000548      0x1ac build\packages\cobs\cobs.o
 .debug_frame   0x000006f4       0x98 build\packages\dac7811\dac7811.o
 .debug_frame   0x0000078c       0xec build\kernel\src\mem.o
 .debug_frame   0x00000878      0x37c build\kernel\src\thread.o
 .debug_frame   0x00000bf4      0x2a4 build\kernel\src\object.o
 .debug_frame   0x00000e98      0x310 build\kernel\src\timer.o
 .debug_frame   0x000011a8      0x180 build\kernel\src\idle.o
 .debug_frame   0x00001328      0x158 build\kernel\src\components.o
 .debug_frame   0x00001480      0x1ec build\kernel\src\device.o
 .debug_frame   0x0000166c      0x268 build\kernel\src\scheduler.o
 .debug_frame   0x000018d4      0x71c build\kernel\src\ipc.o
 .debug_frame   0x00001ff0       0xe4 build\kernel\src\clock.o
 .debug_frame   0x000020d4       0xcc build\kernel\src\irq.o
 .debug_frame   0x000021a0      0x708 build\kernel\src\kservice.o
 .debug_frame   0x000028a8      0x130 build\kernel\libcpu\arm\cortex-m4\cpuport.o
 .debug_frame   0x000029d8      0x230 build\kernel\components\finsh\shell.o
 .debug_frame   0x00002c08      0x158 build\kernel\components\finsh\msh.o
 .debug_frame   0x00002d60      0x2a8 build\kernel\components\finsh\cmd.o
 .debug_frame   0x00003008      0x3f8 build\kernel\components\libc\compilers\newlib\syscalls.o
 .debug_frame   0x00003400      0x3c8 build\kernel\components\utilities\ulog\ulog.o
 .debug_frame   0x000037c8       0x50 build\kernel\components\utilities\ulog\backend\console_be.o
 .debug_frame   0x00003818       0xa4 libraries\GD32F30x_Firmware_Library\CMSIS\GD\GD32F30x\Source\system_gd32f30x.o
 .debug_frame   0x000038bc      0x5ec libraries\GD32F30x_Firmware_Library\GD32F30x_standard_peripheral\Source\gd32f30x_rcu.o
 .debug_frame   0x00003ea8      0x418 libraries\GD32F30x_Firmware_Library\GD32F30x_standard_peripheral\Source\gd32f30x_dma.o
 .debug_frame   0x000042c0      0x7d8 libraries\GD32F30x_Firmware_Library\GD32F30x_standard_peripheral\Source\gd32f30x_usart.o
 .debug_frame   0x00004a98      0x1e8 libraries\GD32F30x_Firmware_Library\GD32F30x_standard_peripheral\Source\gd32f30x_exti.o
 .debug_frame   0x00004c80      0x2e0 libraries\GD32F30x_Firmware_Library\GD32F30x_standard_peripheral\Source\gd32f30x_gpio.o
 .debug_frame   0x00004f60      0x124 libraries\GD32F30x_Firmware_Library\GD32F30x_standard_peripheral\Source\gd32f30x_misc.o
 .debug_frame   0x00005084      0x28c libraries\gd32_drivers\drv_gpio.o
 .debug_frame   0x00005310      0x2b4 libraries\gd32_drivers\drv_soft_spi.o
 .debug_frame   0x000055c4      0x290 libraries\gd32_drivers\drv_usart.o
 .debug_frame   0x00005854      0x18c build\kernel\components\drivers\ipc\dataqueue.o
 .debug_frame   0x000059e0      0x334 build\kernel\components\drivers\ipc\workqueue.o
 .debug_frame   0x00005d14       0xf4 build\kernel\components\drivers\ipc\completion.o
 .debug_frame   0x00005e08      0x1a0 build\kernel\components\drivers\misc\pin.o
 .debug_frame   0x00005fa8      0x2c8 build\kernel\components\drivers\serial\serial.o
 .debug_frame   0x00006270      0x19c build\kernel\components\drivers\spi\spi_core.o
 .debug_frame   0x0000640c      0x138 build\kernel\components\drivers\spi\spi_dev.o
 .debug_frame   0x00006544      0x160 build\kernel\components\drivers\spi\spi-bit-ops.o
 .debug_frame   0x000066a4       0x30 d:/keil_v5/os/rtthread/env-windows-v1.3.5/tools/gnu_gcc/arm_gcc/mingw/bin/../lib/gcc/arm-none-eabi/10.3.1/../../../../arm-none-eabi/lib/thumb/v7e-m+fp/hard\libc.a(lib_a-atoi.o)
 .debug_frame   0x000066d4       0x2c d:/keil_v5/os/rtthread/env-windows-v1.3.5/tools/gnu_gcc/arm_gcc/mingw/bin/../lib/gcc/arm-none-eabi/10.3.1/../../../../arm-none-eabi/lib/thumb/v7e-m+fp/hard\libc.a(lib_a-memcmp.o)
 .debug_frame   0x00006700       0x2c d:/keil_v5/os/rtthread/env-windows-v1.3.5/tools/gnu_gcc/arm_gcc/mingw/bin/../lib/gcc/arm-none-eabi/10.3.1/../../../../arm-none-eabi/lib/thumb/v7e-m+fp/hard\libc.a(lib_a-memset.o)
 .debug_frame   0x0000672c       0x38 d:/keil_v5/os/rtthread/env-windows-v1.3.5/tools/gnu_gcc/arm_gcc/mingw/bin/../lib/gcc/arm-none-eabi/10.3.1/../../../../arm-none-eabi/lib/thumb/v7e-m+fp/hard\libc.a(lib_a-strncmp.o)
 .debug_frame   0x00006764       0x2c d:/keil_v5/os/rtthread/env-windows-v1.3.5/tools/gnu_gcc/arm_gcc/mingw/bin/../lib/gcc/arm-none-eabi/10.3.1/../../../../arm-none-eabi/lib/thumb/v7e-m+fp/hard\libc.a(lib_a-strncpy.o)
 .debug_frame   0x00006790       0x80 d:/keil_v5/os/rtthread/env-windows-v1.3.5/tools/gnu_gcc/arm_gcc/mingw/bin/../lib/gcc/arm-none-eabi/10.3.1/../../../../arm-none-eabi/lib/thumb/v7e-m+fp/hard\libc.a(lib_a-strtol.o)
 .debug_frame   0x00006810       0x50 d:/keil_v5/os/rtthread/env-windows-v1.3.5/tools/gnu_gcc/arm_gcc/mingw/bin/../lib/gcc/arm-none-eabi/10.3.1/thumb/v7e-m+fp/hard\libgcc.a(_arm_muldivdf3.o)
 .debug_frame   0x00006860       0x24 d:/keil_v5/os/rtthread/env-windows-v1.3.5/tools/gnu_gcc/arm_gcc/mingw/bin/../lib/gcc/arm-none-eabi/10.3.1/thumb/v7e-m+fp/hard\libgcc.a(_arm_fixunsdfsi.o)

.debug_str      0x00000000     0x6d39
 *(.debug_str)
 .debug_str     0x00000000      0x7b0 build\applications\rs232_link.o
                                0x8e3 (size before relaxing)
 .debug_str     0x000007b0       0x24 build\applications\main.o
                                0x1ac (size before relaxing)
 .debug_str     0x000007d4       0x65 libraries\GD32F30x_Firmware_Library\CMSIS\GD\GD32F30x\Source\GCC\startup_gd32f30x_hd.o
                                 0x9a (size before relaxing)
 .debug_str     0x00000839      0x6e8 build\board\board.o
                                0x890 (size before relaxing)
 .debug_str     0x00000f21      0x1df build\packages\ad7190\ad7190.o
                                0x9be (size before relaxing)
 .debug_str     0x00001100       0xb1 build\packages\ad983x\ad983x.o
                                0x7cc (size before relaxing)
 .debug_str     0x000011b1      0x139 build\packages\cobs\cobs.o
                                0x355 (size before relaxing)
 .debug_str     0x000012ea       0xc9 build\packages\dac7811\dac7811.o
                                0x97b (size before relaxing)
 .debug_str     0x000013b3      0x2b0 build\kernel\src\mem.o
                                0x4b5 (size before relaxing)
 .debug_str     0x00001663      0x23a build\kernel\src\thread.o
                                0x6c3 (size before relaxing)
 .debug_str     0x0000189d      0x335 build\kernel\src\object.o
                                0x6dc (size before relaxing)
 .debug_str     0x00001bd2      0x1c1 build\kernel\src\timer.o
                                0x5f7 (size before relaxing)
 .debug_str     0x00001d93      0x119 build\kernel\src\idle.o
                                0x432 (size before relaxing)
 .debug_str     0x00001eac       0xdd build\kernel\src\components.o
                                0x3f1 (size before relaxing)
 .debug_str     0x00001f89      0x11e build\kernel\src\device.o
                                0x772 (size before relaxing)
 .debug_str     0x000020a7      0x24d build\kernel\src\scheduler.o
                                0x5b6 (size before relaxing)
 .debug_str     0x000022f4      0x33a build\kernel\src\ipc.o
                                0x933 (size before relaxing)
 .debug_str     0x0000262e       0x95 build\kernel\src\clock.o
                                0x373 (size before relaxing)
 .debug_str     0x000026c3       0xb6 build\kernel\src\irq.o
                                0x24b (size before relaxing)
 .debug_str     0x00002779      0x3e9 build\kernel\src\kservice.o
                                0xac7 (size before relaxing)
 .debug_str     0x00002b62       0x2d build\kernel\libcpu\arm\cortex-m4\context_gcc.o
                                 0x70 (size before relaxing)
 .debug_str     0x00002b8f      0x19c build\kernel\libcpu\arm\cortex-m4\cpuport.o
                                0x375 (size before relaxing)
 .debug_str     0x00002d2b      0x255 build\kernel\components\finsh\shell.o
                                0x8e8 (size before relaxing)
 .debug_str     0x00002f80      0x16f build\kernel\components\finsh\msh.o
                                0x393 (size before relaxing)
 .debug_str     0x000030ef      0x3e6 build\kernel\components\finsh\cmd.o
                                0xd0c (size before relaxing)
 .debug_str     0x000034d5      0x5be build\kernel\components\libc\compilers\newlib\syscalls.o
                                0xb68 (size before relaxing)
 .debug_str     0x00003a93      0x344 build\kernel\components\utilities\ulog\ulog.o
                                0x723 (size before relaxing)
 .debug_str     0x00003dd7       0x66 build\kernel\components\utilities\ulog\backend\console_be.o
                                0x5dc (size before relaxing)
 .debug_str     0x00003e3d       0xe9 libraries\GD32F30x_Firmware_Library\CMSIS\GD\GD32F30x\Source\system_gd32f30x.o
                                0x305 (size before relaxing)
 .debug_str     0x00003f26      0xa8c libraries\GD32F30x_Firmware_Library\GD32F30x_standard_peripheral\Source\gd32f30x_rcu.o
                                0xe01 (size before relaxing)
 .debug_str     0x000049b2      0x3ac libraries\GD32F30x_Firmware_Library\GD32F30x_standard_peripheral\Source\gd32f30x_dma.o
                                0x5c0 (size before relaxing)
 .debug_str     0x00004d5e      0x912 libraries\GD32F30x_Firmware_Library\GD32F30x_standard_peripheral\Source\gd32f30x_usart.o
                                0xccb (size before relaxing)
 .debug_str     0x00005670      0x288 libraries\GD32F30x_Firmware_Library\GD32F30x_standard_peripheral\Source\gd32f30x_exti.o
                                0x410 (size before relaxing)
 .debug_str     0x000058f8      0x24f libraries\GD32F30x_Firmware_Library\GD32F30x_standard_peripheral\Source\gd32f30x_gpio.o
                                0x5f2 (size before relaxing)
 .debug_str     0x00005b47      0x178 libraries\GD32F30x_Firmware_Library\GD32F30x_standard_peripheral\Source\gd32f30x_misc.o
                                0x3d7 (size before relaxing)
 .debug_str     0x00005cbf      0x1f1 libraries\gd32_drivers\drv_gpio.o
                                0xe82 (size before relaxing)
 .debug_str     0x00005eb0      0x1b4 libraries\gd32_drivers\drv_soft_spi.o
                                0xb44 (size before relaxing)
 .debug_str     0x00006064      0x2dc libraries\gd32_drivers\drv_usart.o
                               0x12cf (size before relaxing)
 .debug_str     0x00006340      0x119 build\kernel\components\drivers\ipc\dataqueue.o
                                0x4ac (size before relaxing)
 .debug_str     0x00006459      0x232 build\kernel\components\drivers\ipc\workqueue.o
                                0x623 (size before relaxing)
 .debug_str     0x0000668b       0x84 build\kernel\components\drivers\ipc\completion.o
                                0x3d1 (size before relaxing)
 .debug_str     0x0000670f       0xf0 build\kernel\components\drivers\misc\pin.o
                                0x65a (size before relaxing)
 .debug_str     0x000067ff      0x216 build\kernel\components\drivers\serial\serial.o
                                0x8f5 (size before relaxing)
 .debug_str     0x00006a15      0x142 build\kernel\components\drivers\spi\spi_core.o
                                0x814 (size before relaxing)
 .debug_str     0x00006b57       0xdb build\kernel\components\drivers\spi\spi_dev.o
                                0x799 (size before relaxing)
 .debug_str     0x00006c32      0x107 build\kernel\components\drivers\spi\spi-bit-ops.o
                                0x86e (size before relaxing)

.debug_loc      0x00000000     0xd99b
 *(.debug_loc)
 .debug_loc     0x00000000      0x314 build\applications\rs232_link.o
 .debug_loc     0x00000314       0x50 build\applications\main.o
 .debug_loc     0x00000364      0x15c build\board\board.o
 .debug_loc     0x000004c0      0x340 build\packages\ad7190\ad7190.o
 .debug_loc     0x00000800      0x280 build\packages\ad983x\ad983x.o
 .debug_loc     0x00000a80      0x3a0 build\packages\cobs\cobs.o
 .debug_loc     0x00000e20      0x11c build\packages\dac7811\dac7811.o
 .debug_loc     0x00000f3c      0x1e0 build\kernel\src\mem.o
 .debug_loc     0x0000111c      0x760 build\kernel\src\thread.o
 .debug_loc     0x0000187c      0x5b0 build\kernel\src\object.o
 .debug_loc     0x00001e2c      0x67c build\kernel\src\timer.o
 .debug_loc     0x000024a8      0x314 build\kernel\src\idle.o
 .debug_loc     0x000027bc      0x2a8 build\kernel\src\components.o
 .debug_loc     0x00002a64      0x410 build\kernel\src\device.o
 .debug_loc     0x00002e74      0x4d0 build\kernel\src\scheduler.o
 .debug_loc     0x00003344      0xf24 build\kernel\src\ipc.o
 .debug_loc     0x00004268      0x1c8 build\kernel\src\clock.o
 .debug_loc     0x00004430      0x1a8 build\kernel\src\irq.o
 .debug_loc     0x000045d8      0xf54 build\kernel\src\kservice.o
 .debug_loc     0x0000552c      0x228 build\kernel\libcpu\arm\cortex-m4\cpuport.o
 .debug_loc     0x00005754      0x464 build\kernel\components\finsh\shell.o
 .debug_loc     0x00005bb8      0x2de build\kernel\components\finsh\msh.o
 .debug_loc     0x00005e96      0x532 build\kernel\components\finsh\cmd.o
 .debug_loc     0x000063c8      0x8ac build\kernel\components\libc\compilers\newlib\syscalls.o
 .debug_loc     0x00006c74      0x7df build\kernel\components\utilities\ulog\ulog.o
 .debug_loc     0x00007453       0x7c build\kernel\components\utilities\ulog\backend\console_be.o
 .debug_loc     0x000074cf      0x134 libraries\GD32F30x_Firmware_Library\CMSIS\GD\GD32F30x\Source\system_gd32f30x.o
 .debug_loc     0x00007603      0xd3a libraries\GD32F30x_Firmware_Library\GD32F30x_standard_peripheral\Source\gd32f30x_rcu.o
 .debug_loc     0x0000833d      0x908 libraries\GD32F30x_Firmware_Library\GD32F30x_standard_peripheral\Source\gd32f30x_dma.o
 .debug_loc     0x00008c45     0x11e0 libraries\GD32F30x_Firmware_Library\GD32F30x_standard_peripheral\Source\gd32f30x_usart.o
 .debug_loc     0x00009e25      0x438 libraries\GD32F30x_Firmware_Library\GD32F30x_standard_peripheral\Source\gd32f30x_exti.o
 .debug_loc     0x0000a25d      0x650 libraries\GD32F30x_Firmware_Library\GD32F30x_standard_peripheral\Source\gd32f30x_gpio.o
 .debug_loc     0x0000a8ad      0x278 libraries\GD32F30x_Firmware_Library\GD32F30x_standard_peripheral\Source\gd32f30x_misc.o
 .debug_loc     0x0000ab25      0x50c libraries\gd32_drivers\drv_gpio.o
 .debug_loc     0x0000b031      0x5e8 libraries\gd32_drivers\drv_soft_spi.o
 .debug_loc     0x0000b619      0x538 libraries\gd32_drivers\drv_usart.o
 .debug_loc     0x0000bb51      0x344 build\kernel\components\drivers\ipc\dataqueue.o
 .debug_loc     0x0000be95      0x6d4 build\kernel\components\drivers\ipc\workqueue.o
 .debug_loc     0x0000c569      0x204 build\kernel\components\drivers\ipc\completion.o
 .debug_loc     0x0000c76d      0x370 build\kernel\components\drivers\misc\pin.o
 .debug_loc     0x0000cadd      0x5e6 build\kernel\components\drivers\serial\serial.o
 .debug_loc     0x0000d0c3      0x370 build\kernel\components\drivers\spi\spi_core.o
 .debug_loc     0x0000d433      0x298 build\kernel\components\drivers\spi\spi_dev.o
 .debug_loc     0x0000d6cb      0x2d0 build\kernel\components\drivers\spi\spi-bit-ops.o

.debug_macinfo
 *(.debug_macinfo)

.debug_weaknames
 *(.debug_weaknames)

.debug_funcnames
 *(.debug_funcnames)

.debug_typenames
 *(.debug_typenames)

.debug_varnames
 *(.debug_varnames)
OUTPUT(rtthread.elf elf32-littlearm)
LOAD linker stubs

.debug_ranges   0x00000000     0x17c8
 .debug_ranges  0x00000000       0x70 build\applications\rs232_link.o
 .debug_ranges  0x00000070       0x10 build\applications\main.o
 .debug_ranges  0x00000080       0x20 libraries\GD32F30x_Firmware_Library\CMSIS\GD\GD32F30x\Source\GCC\startup_gd32f30x_hd.o
 .debug_ranges  0x000000a0       0x38 build\board\board.o
 .debug_ranges  0x000000d8       0x60 build\packages\ad7190\ad7190.o
 .debug_ranges  0x00000138       0x48 build\packages\ad983x\ad983x.o
 .debug_ranges  0x00000180       0x60 build\packages\cobs\cobs.o
 .debug_ranges  0x000001e0       0x28 build\packages\dac7811\dac7811.o
 .debug_ranges  0x00000208       0x38 build\kernel\src\mem.o
 .debug_ranges  0x00000240       0xc0 build\kernel\src\thread.o
 .debug_ranges  0x00000300       0x90 build\kernel\src\object.o
 .debug_ranges  0x00000390       0xc0 build\kernel\src\timer.o
 .debug_ranges  0x00000450       0x70 build\kernel\src\idle.o
 .debug_ranges  0x000004c0       0x58 build\kernel\src\components.o
 .debug_ranges  0x00000518       0x70 build\kernel\src\device.o
 .debug_ranges  0x00000588       0xb8 build\kernel\src\scheduler.o
 .debug_ranges  0x00000640      0x188 build\kernel\src\ipc.o
 .debug_ranges  0x000007c8       0x38 build\kernel\src\clock.o
 .debug_ranges  0x00000800       0x30 build\kernel\src\irq.o
 .debug_ranges  0x00000830      0x178 build\kernel\src\kservice.o
 .debug_ranges  0x000009a8       0x68 build\kernel\libcpu\arm\cortex-m4\cpuport.o
 .debug_ranges  0x00000a10       0x88 build\kernel\components\finsh\shell.o
 .debug_ranges  0x00000a98       0x50 build\kernel\components\finsh\msh.o
 .debug_ranges  0x00000ae8       0x90 build\kernel\components\finsh\cmd.o
 .debug_ranges  0x00000b78       0xe0 build\kernel\components\libc\compilers\newlib\syscalls.o
 .debug_ranges  0x00000c58       0xd0 build\kernel\components\utilities\ulog\ulog.o
 .debug_ranges  0x00000d28       0x18 build\kernel\components\utilities\ulog\backend\console_be.o
 .debug_ranges  0x00000d40       0x28 libraries\GD32F30x_Firmware_Library\CMSIS\GD\GD32F30x\Source\system_gd32f30x.o
 .debug_ranges  0x00000d68      0x140 libraries\GD32F30x_Firmware_Library\GD32F30x_standard_peripheral\Source\gd32f30x_rcu.o
 .debug_ranges  0x00000ea8       0xe8 libraries\GD32F30x_Firmware_Library\GD32F30x_standard_peripheral\Source\gd32f30x_dma.o
 .debug_ranges  0x00000f90      0x198 libraries\GD32F30x_Firmware_Library\GD32F30x_standard_peripheral\Source\gd32f30x_usart.o
 .debug_ranges  0x00001128       0x68 libraries\GD32F30x_Firmware_Library\GD32F30x_standard_peripheral\Source\gd32f30x_exti.o
 .debug_ranges  0x00001190       0xa0 libraries\GD32F30x_Firmware_Library\GD32F30x_standard_peripheral\Source\gd32f30x_gpio.o
 .debug_ranges  0x00001230       0x40 libraries\GD32F30x_Firmware_Library\GD32F30x_standard_peripheral\Source\gd32f30x_misc.o
 .debug_ranges  0x00001270       0xa0 libraries\gd32_drivers\drv_gpio.o
 .debug_ranges  0x00001310       0x98 libraries\gd32_drivers\drv_soft_spi.o
 .debug_ranges  0x000013a8       0x98 libraries\gd32_drivers\drv_usart.o
 .debug_ranges  0x00001440       0x58 build\kernel\components\drivers\ipc\dataqueue.o
 .debug_ranges  0x00001498       0xb8 build\kernel\components\drivers\ipc\workqueue.o
 .debug_ranges  0x00001550       0x38 build\kernel\components\drivers\ipc\completion.o
 .debug_ranges  0x00001588       0x60 build\kernel\components\drivers\misc\pin.o
 .debug_ranges  0x000015e8       0xe8 build\kernel\components\drivers\serial\serial.o
 .debug_ranges  0x000016d0       0x60 build\kernel\components\drivers\spi\spi_core.o
 .debug_ranges  0x00001730       0x48 build\kernel\components\drivers\spi\spi_dev.o
 .debug_ranges  0x00001778       0x50 build\kernel\components\drivers\spi\spi-bit-ops.o

Cross Reference Table

Symbol                                            File
AD983X_SetRegisterValue                           build\packages\ad983x\ad983x.o
ADC0_1_IRQHandler                                 libraries\GD32F30x_Firmware_Library\CMSIS\GD\GD32F30x\Source\GCC\startup_gd32f30x_hd.o
ADC2_IRQHandler                                   libraries\GD32F30x_Firmware_Library\CMSIS\GD\GD32F30x\Source\GCC\startup_gd32f30x_hd.o
BusFault_Handler                                  libraries\GD32F30x_Firmware_Library\CMSIS\GD\GD32F30x\Source\GCC\startup_gd32f30x_hd.o
CAN0_EWMC_IRQHandler                              libraries\GD32F30x_Firmware_Library\CMSIS\GD\GD32F30x\Source\GCC\startup_gd32f30x_hd.o
CAN0_RX1_IRQHandler                               libraries\GD32F30x_Firmware_Library\CMSIS\GD\GD32F30x\Source\GCC\startup_gd32f30x_hd.o
DMA0_Channel0_IRQHandler                          libraries\GD32F30x_Firmware_Library\CMSIS\GD\GD32F30x\Source\GCC\startup_gd32f30x_hd.o
DMA0_Channel1_IRQHandler                          libraries\GD32F30x_Firmware_Library\CMSIS\GD\GD32F30x\Source\GCC\startup_gd32f30x_hd.o
DMA0_Channel2_IRQHandler                          libraries\GD32F30x_Firmware_Library\CMSIS\GD\GD32F30x\Source\GCC\startup_gd32f30x_hd.o
DMA0_Channel3_IRQHandler                          libraries\gd32_drivers\drv_usart.o
                                                  libraries\GD32F30x_Firmware_Library\CMSIS\GD\GD32F30x\Source\GCC\startup_gd32f30x_hd.o
DMA0_Channel4_IRQHandler                          libraries\gd32_drivers\drv_usart.o
                                                  libraries\GD32F30x_Firmware_Library\CMSIS\GD\GD32F30x\Source\GCC\startup_gd32f30x_hd.o
DMA0_Channel5_IRQHandler                          libraries\GD32F30x_Firmware_Library\CMSIS\GD\GD32F30x\Source\GCC\startup_gd32f30x_hd.o
DMA0_Channel6_IRQHandler                          libraries\GD32F30x_Firmware_Library\CMSIS\GD\GD32F30x\Source\GCC\startup_gd32f30x_hd.o
DMA1_Channel0_IRQHandler                          libraries\GD32F30x_Firmware_Library\CMSIS\GD\GD32F30x\Source\GCC\startup_gd32f30x_hd.o
DMA1_Channel1_IRQHandler                          libraries\GD32F30x_Firmware_Library\CMSIS\GD\GD32F30x\Source\GCC\startup_gd32f30x_hd.o
DMA1_Channel2_IRQHandler                          libraries\GD32F30x_Firmware_Library\CMSIS\GD\GD32F30x\Source\GCC\startup_gd32f30x_hd.o
DMA1_Channel3_4_IRQHandler                        libraries\GD32F30x_Firmware_Library\CMSIS\GD\GD32F30x\Source\GCC\startup_gd32f30x_hd.o
DebugMon_Handler                                  libraries\GD32F30x_Firmware_Library\CMSIS\GD\GD32F30x\Source\GCC\startup_gd32f30x_hd.o
Default_Handler                                   libraries\GD32F30x_Firmware_Library\CMSIS\GD\GD32F30x\Source\GCC\startup_gd32f30x_hd.o
EXMC_IRQHandler                                   libraries\GD32F30x_Firmware_Library\CMSIS\GD\GD32F30x\Source\GCC\startup_gd32f30x_hd.o
EXTI0_IRQHandler                                  libraries\gd32_drivers\drv_gpio.o
                                                  libraries\GD32F30x_Firmware_Library\CMSIS\GD\GD32F30x\Source\GCC\startup_gd32f30x_hd.o
EXTI10_15_IRQHandler                              libraries\gd32_drivers\drv_gpio.o
                                                  libraries\GD32F30x_Firmware_Library\CMSIS\GD\GD32F30x\Source\GCC\startup_gd32f30x_hd.o
EXTI1_IRQHandler                                  libraries\gd32_drivers\drv_gpio.o
                                                  libraries\GD32F30x_Firmware_Library\CMSIS\GD\GD32F30x\Source\GCC\startup_gd32f30x_hd.o
EXTI2_IRQHandler                                  libraries\gd32_drivers\drv_gpio.o
                                                  libraries\GD32F30x_Firmware_Library\CMSIS\GD\GD32F30x\Source\GCC\startup_gd32f30x_hd.o
EXTI3_IRQHandler                                  libraries\gd32_drivers\drv_gpio.o
                                                  libraries\GD32F30x_Firmware_Library\CMSIS\GD\GD32F30x\Source\GCC\startup_gd32f30x_hd.o
EXTI4_IRQHandler                                  libraries\gd32_drivers\drv_gpio.o
                                                  libraries\GD32F30x_Firmware_Library\CMSIS\GD\GD32F30x\Source\GCC\startup_gd32f30x_hd.o
EXTI5_9_IRQHandler                                libraries\gd32_drivers\drv_gpio.o
                                                  libraries\GD32F30x_Firmware_Library\CMSIS\GD\GD32F30x\Source\GCC\startup_gd32f30x_hd.o
Error_Handler                                     build\board\board.o
FMC_IRQHandler                                    libraries\GD32F30x_Firmware_Library\CMSIS\GD\GD32F30x\Source\GCC\startup_gd32f30x_hd.o
GD32_GPIO_EXTI_IRQHandler                         libraries\gd32_drivers\drv_gpio.o
HardFault_Handler                                 build\kernel\libcpu\arm\cortex-m4\context_gcc.o
                                                  libraries\GD32F30x_Firmware_Library\CMSIS\GD\GD32F30x\Source\GCC\startup_gd32f30x_hd.o
I2C0_ER_IRQHandler                                libraries\GD32F30x_Firmware_Library\CMSIS\GD\GD32F30x\Source\GCC\startup_gd32f30x_hd.o
I2C0_EV_IRQHandler                                libraries\GD32F30x_Firmware_Library\CMSIS\GD\GD32F30x\Source\GCC\startup_gd32f30x_hd.o
I2C1_ER_IRQHandler                                libraries\GD32F30x_Firmware_Library\CMSIS\GD\GD32F30x\Source\GCC\startup_gd32f30x_hd.o
I2C1_EV_IRQHandler                                libraries\GD32F30x_Firmware_Library\CMSIS\GD\GD32F30x\Source\GCC\startup_gd32f30x_hd.o
LVD_IRQHandler                                    libraries\GD32F30x_Firmware_Library\CMSIS\GD\GD32F30x\Source\GCC\startup_gd32f30x_hd.o
MemManage_Handler                                 libraries\GD32F30x_Firmware_Library\CMSIS\GD\GD32F30x\Source\GCC\startup_gd32f30x_hd.o
NMI_Handler                                       libraries\GD32F30x_Firmware_Library\CMSIS\GD\GD32F30x\Source\GCC\startup_gd32f30x_hd.o
PendSV_Handler                                    build\kernel\libcpu\arm\cortex-m4\context_gcc.o
                                                  libraries\GD32F30x_Firmware_Library\CMSIS\GD\GD32F30x\Source\GCC\startup_gd32f30x_hd.o
RCU_CTC_IRQHandler                                libraries\GD32F30x_Firmware_Library\CMSIS\GD\GD32F30x\Source\GCC\startup_gd32f30x_hd.o
RTC_Alarm_IRQHandler                              libraries\GD32F30x_Firmware_Library\CMSIS\GD\GD32F30x\Source\GCC\startup_gd32f30x_hd.o
RTC_IRQHandler                                    libraries\GD32F30x_Firmware_Library\CMSIS\GD\GD32F30x\Source\GCC\startup_gd32f30x_hd.o
Reset_Handler                                     libraries\GD32F30x_Firmware_Library\CMSIS\GD\GD32F30x\Source\GCC\startup_gd32f30x_hd.o
SDIO_IRQHandler                                   libraries\GD32F30x_Firmware_Library\CMSIS\GD\GD32F30x\Source\GCC\startup_gd32f30x_hd.o
SPI0_IRQHandler                                   libraries\GD32F30x_Firmware_Library\CMSIS\GD\GD32F30x\Source\GCC\startup_gd32f30x_hd.o
SPI1_IRQHandler                                   libraries\GD32F30x_Firmware_Library\CMSIS\GD\GD32F30x\Source\GCC\startup_gd32f30x_hd.o
SPI2_IRQHandler                                   libraries\GD32F30x_Firmware_Library\CMSIS\GD\GD32F30x\Source\GCC\startup_gd32f30x_hd.o
SVC_Handler                                       libraries\GD32F30x_Firmware_Library\CMSIS\GD\GD32F30x\Source\GCC\startup_gd32f30x_hd.o
SysTick_Handler                                   build\board\board.o
                                                  libraries\GD32F30x_Firmware_Library\CMSIS\GD\GD32F30x\Source\GCC\startup_gd32f30x_hd.o
SystemClock_Config                                build\board\board.o
SystemCoreClock                                   libraries\GD32F30x_Firmware_Library\CMSIS\GD\GD32F30x\Source\system_gd32f30x.o
                                                  build\board\board.o
SystemCoreClockUpdate                             libraries\GD32F30x_Firmware_Library\CMSIS\GD\GD32F30x\Source\system_gd32f30x.o
SystemInit                                        libraries\GD32F30x_Firmware_Library\CMSIS\GD\GD32F30x\Source\system_gd32f30x.o
                                                  libraries\GD32F30x_Firmware_Library\CMSIS\GD\GD32F30x\Source\GCC\startup_gd32f30x_hd.o
TAMPER_IRQHandler                                 libraries\GD32F30x_Firmware_Library\CMSIS\GD\GD32F30x\Source\GCC\startup_gd32f30x_hd.o
TIMER0_BRK_IRQHandler                             libraries\GD32F30x_Firmware_Library\CMSIS\GD\GD32F30x\Source\GCC\startup_gd32f30x_hd.o
TIMER0_Channel_IRQHandler                         libraries\GD32F30x_Firmware_Library\CMSIS\GD\GD32F30x\Source\GCC\startup_gd32f30x_hd.o
TIMER0_TRG_CMT_IRQHandler                         libraries\GD32F30x_Firmware_Library\CMSIS\GD\GD32F30x\Source\GCC\startup_gd32f30x_hd.o
TIMER0_UP_IRQHandler                              libraries\GD32F30x_Firmware_Library\CMSIS\GD\GD32F30x\Source\GCC\startup_gd32f30x_hd.o
TIMER1_IRQHandler                                 libraries\GD32F30x_Firmware_Library\CMSIS\GD\GD32F30x\Source\GCC\startup_gd32f30x_hd.o
TIMER2_IRQHandler                                 libraries\GD32F30x_Firmware_Library\CMSIS\GD\GD32F30x\Source\GCC\startup_gd32f30x_hd.o
TIMER3_IRQHandler                                 libraries\GD32F30x_Firmware_Library\CMSIS\GD\GD32F30x\Source\GCC\startup_gd32f30x_hd.o
TIMER4_IRQHandler                                 libraries\GD32F30x_Firmware_Library\CMSIS\GD\GD32F30x\Source\GCC\startup_gd32f30x_hd.o
TIMER5_IRQHandler                                 libraries\GD32F30x_Firmware_Library\CMSIS\GD\GD32F30x\Source\GCC\startup_gd32f30x_hd.o
TIMER6_IRQHandler                                 libraries\GD32F30x_Firmware_Library\CMSIS\GD\GD32F30x\Source\GCC\startup_gd32f30x_hd.o
TIMER7_BRK_IRQHandler                             libraries\GD32F30x_Firmware_Library\CMSIS\GD\GD32F30x\Source\GCC\startup_gd32f30x_hd.o
TIMER7_Channel_IRQHandler                         libraries\GD32F30x_Firmware_Library\CMSIS\GD\GD32F30x\Source\GCC\startup_gd32f30x_hd.o
TIMER7_TRG_CMT_IRQHandler                         libraries\GD32F30x_Firmware_Library\CMSIS\GD\GD32F30x\Source\GCC\startup_gd32f30x_hd.o
TIMER7_UP_IRQHandler                              libraries\GD32F30x_Firmware_Library\CMSIS\GD\GD32F30x\Source\GCC\startup_gd32f30x_hd.o
UART3_IRQHandler                                  libraries\GD32F30x_Firmware_Library\CMSIS\GD\GD32F30x\Source\GCC\startup_gd32f30x_hd.o
UART4_IRQHandler                                  libraries\GD32F30x_Firmware_Library\CMSIS\GD\GD32F30x\Source\GCC\startup_gd32f30x_hd.o
USART0_IRQHandler                                 libraries\gd32_drivers\drv_usart.o
                                                  libraries\GD32F30x_Firmware_Library\CMSIS\GD\GD32F30x\Source\GCC\startup_gd32f30x_hd.o
USART1_IRQHandler                                 libraries\GD32F30x_Firmware_Library\CMSIS\GD\GD32F30x\Source\GCC\startup_gd32f30x_hd.o
USART2_IRQHandler                                 libraries\GD32F30x_Firmware_Library\CMSIS\GD\GD32F30x\Source\GCC\startup_gd32f30x_hd.o
USART3_IRQHandler                                 libraries\gd32_drivers\drv_usart.o
USBD_HP_CAN0_TX_IRQHandler                        libraries\GD32F30x_Firmware_Library\CMSIS\GD\GD32F30x\Source\GCC\startup_gd32f30x_hd.o
USBD_LP_CAN0_RX0_IRQHandler                       libraries\GD32F30x_Firmware_Library\CMSIS\GD\GD32F30x\Source\GCC\startup_gd32f30x_hd.o
USBD_WKUP_IRQHandler                              libraries\GD32F30x_Firmware_Library\CMSIS\GD\GD32F30x\Source\GCC\startup_gd32f30x_hd.o
UsageFault_Handler                                libraries\GD32F30x_Firmware_Library\CMSIS\GD\GD32F30x\Source\GCC\startup_gd32f30x_hd.o
WWDGT_IRQHandler                                  libraries\GD32F30x_Firmware_Library\CMSIS\GD\GD32F30x\Source\GCC\startup_gd32f30x_hd.o
__aeabi_d2uiz                                     d:/keil_v5/os/rtthread/env-windows-v1.3.5/tools/gnu_gcc/arm_gcc/mingw/bin/../lib/gcc/arm-none-eabi/10.3.1/thumb/v7e-m+fp/hard\libgcc.a(_arm_fixunsdfsi.o)
                                                  build\packages\ad983x\ad983x.o
__aeabi_ddiv                                      d:/keil_v5/os/rtthread/env-windows-v1.3.5/tools/gnu_gcc/arm_gcc/mingw/bin/../lib/gcc/arm-none-eabi/10.3.1/thumb/v7e-m+fp/hard\libgcc.a(_arm_muldivdf3.o)
                                                  build\packages\ad983x\ad983x.o
__aeabi_dmul                                      d:/keil_v5/os/rtthread/env-windows-v1.3.5/tools/gnu_gcc/arm_gcc/mingw/bin/../lib/gcc/arm-none-eabi/10.3.1/thumb/v7e-m+fp/hard\libgcc.a(_arm_muldivdf3.o)
                                                  d:/keil_v5/os/rtthread/env-windows-v1.3.5/tools/gnu_gcc/arm_gcc/mingw/bin/../lib/gcc/arm-none-eabi/10.3.1/thumb/v7e-m+fp/hard\libgcc.a(_arm_muldf3.o)
                                                  build\packages\ad983x\ad983x.o
__aeabi_idiv0                                     d:/keil_v5/os/rtthread/env-windows-v1.3.5/tools/gnu_gcc/arm_gcc/mingw/bin/../lib/gcc/arm-none-eabi/10.3.1/thumb/v7e-m+fp/hard\libgcc.a(_dvmd_tls.o)
__aeabi_ldiv0                                     d:/keil_v5/os/rtthread/env-windows-v1.3.5/tools/gnu_gcc/arm_gcc/mingw/bin/../lib/gcc/arm-none-eabi/10.3.1/thumb/v7e-m+fp/hard\libgcc.a(_dvmd_tls.o)
                                                  d:/keil_v5/os/rtthread/env-windows-v1.3.5/tools/gnu_gcc/arm_gcc/mingw/bin/../lib/gcc/arm-none-eabi/10.3.1/thumb/v7e-m+fp/hard\libgcc.a(_aeabi_ldivmod.o)
__aeabi_ldivmod                                   d:/keil_v5/os/rtthread/env-windows-v1.3.5/tools/gnu_gcc/arm_gcc/mingw/bin/../lib/gcc/arm-none-eabi/10.3.1/thumb/v7e-m+fp/hard\libgcc.a(_aeabi_ldivmod.o)
                                                  build\kernel\components\libc\compilers\common\time.o
__atexit_recursive_mutex                          d:/keil_v5/os/rtthread/env-windows-v1.3.5/tools/gnu_gcc/arm_gcc/mingw/bin/../lib/gcc/arm-none-eabi/10.3.1/../../../../arm-none-eabi/lib/thumb/v7e-m+fp/hard\libc.a(lib_a-__call_atexit.o)
                                                  d:/keil_v5/os/rtthread/env-windows-v1.3.5/tools/gnu_gcc/arm_gcc/mingw/bin/../lib/gcc/arm-none-eabi/10.3.1/../../../../arm-none-eabi/lib/thumb/v7e-m+fp/hard\libc.a(lib_a-__atexit.o)
__bss_end                                         build\board\board.o
                                                  libraries\GD32F30x_Firmware_Library\CMSIS\GD\GD32F30x\Source\GCC\startup_gd32f30x_hd.o
__bss_end__                                       d:/keil_v5/os/rtthread/env-windows-v1.3.5/tools/gnu_gcc/arm_gcc/mingw/bin/../lib/gcc/arm-none-eabi/10.3.1/../../../../arm-none-eabi/lib/thumb/v7e-m+fp/hard/crt0.o
__bss_start                                       libraries\GD32F30x_Firmware_Library\CMSIS\GD\GD32F30x\Source\GCC\startup_gd32f30x_hd.o
__bss_start__                                     d:/keil_v5/os/rtthread/env-windows-v1.3.5/tools/gnu_gcc/arm_gcc/mingw/bin/../lib/gcc/arm-none-eabi/10.3.1/../../../../arm-none-eabi/lib/thumb/v7e-m+fp/hard/crt0.o
__call_exitprocs                                  d:/keil_v5/os/rtthread/env-windows-v1.3.5/tools/gnu_gcc/arm_gcc/mingw/bin/../lib/gcc/arm-none-eabi/10.3.1/../../../../arm-none-eabi/lib/thumb/v7e-m+fp/hard\libc.a(lib_a-__call_atexit.o)
                                                  d:/keil_v5/os/rtthread/env-windows-v1.3.5/tools/gnu_gcc/arm_gcc/mingw/bin/../lib/gcc/arm-none-eabi/10.3.1/../../../../arm-none-eabi/lib/thumb/v7e-m+fp/hard\libc.a(lib_a-exit.o)
__deregister_frame_info                           d:/keil_v5/os/rtthread/env-windows-v1.3.5/tools/gnu_gcc/arm_gcc/mingw/bin/../lib/gcc/arm-none-eabi/10.3.1/thumb/v7e-m+fp/hard/crtbegin.o
__div0                                            build\kernel\libcpu\arm\common\div0.o
__divdf3                                          d:/keil_v5/os/rtthread/env-windows-v1.3.5/tools/gnu_gcc/arm_gcc/mingw/bin/../lib/gcc/arm-none-eabi/10.3.1/thumb/v7e-m+fp/hard\libgcc.a(_arm_muldivdf3.o)
__dso_handle                                      d:/keil_v5/os/rtthread/env-windows-v1.3.5/tools/gnu_gcc/arm_gcc/mingw/bin/../lib/gcc/arm-none-eabi/10.3.1/thumb/v7e-m+fp/hard/crtbegin.o
__errno                                           build\kernel\components\libc\compilers\newlib\syscalls.o
                                                  d:/keil_v5/os/rtthread/env-windows-v1.3.5/tools/gnu_gcc/arm_gcc/mingw/bin/../lib/gcc/arm-none-eabi/10.3.1/../../../../arm-none-eabi/lib/thumb/v7e-m+fp/hard\libc.a(lib_a-strtol.o)
__fini_array_end                                  d:/keil_v5/os/rtthread/env-windows-v1.3.5/tools/gnu_gcc/arm_gcc/mingw/bin/../lib/gcc/arm-none-eabi/10.3.1/../../../../arm-none-eabi/lib/thumb/v7e-m+fp/hard\libc.a(lib_a-fini.o)
__fini_array_start                                d:/keil_v5/os/rtthread/env-windows-v1.3.5/tools/gnu_gcc/arm_gcc/mingw/bin/../lib/gcc/arm-none-eabi/10.3.1/../../../../arm-none-eabi/lib/thumb/v7e-m+fp/hard\libc.a(lib_a-fini.o)
__fixunsdfsi                                      d:/keil_v5/os/rtthread/env-windows-v1.3.5/tools/gnu_gcc/arm_gcc/mingw/bin/../lib/gcc/arm-none-eabi/10.3.1/thumb/v7e-m+fp/hard\libgcc.a(_arm_fixunsdfsi.o)
__fsym_clear                                      build\kernel\components\finsh\cmd.o
__fsym_clear_desc                                 build\kernel\components\finsh\cmd.o
__fsym_clear_name                                 build\kernel\components\finsh\cmd.o
__fsym_dac7811_set                                build\packages\dac7811\dac7811.o
__fsym_dac7811_set_desc                           build\packages\dac7811\dac7811.o
__fsym_dac7811_set_name                           build\packages\dac7811\dac7811.o
__fsym_free                                       build\kernel\components\finsh\msh.o
__fsym_free_desc                                  build\kernel\components\finsh\msh.o
__fsym_free_name                                  build\kernel\components\finsh\msh.o
__fsym_help                                       build\kernel\components\finsh\msh.o
__fsym_help_desc                                  build\kernel\components\finsh\msh.o
__fsym_help_name                                  build\kernel\components\finsh\msh.o
__fsym_list_device                                build\kernel\components\finsh\cmd.o
__fsym_list_device_desc                           build\kernel\components\finsh\cmd.o
__fsym_list_device_name                           build\kernel\components\finsh\cmd.o
__fsym_list_event                                 build\kernel\components\finsh\cmd.o
__fsym_list_event_desc                            build\kernel\components\finsh\cmd.o
__fsym_list_event_name                            build\kernel\components\finsh\cmd.o
__fsym_list_mailbox                               build\kernel\components\finsh\cmd.o
__fsym_list_mailbox_desc                          build\kernel\components\finsh\cmd.o
__fsym_list_mailbox_name                          build\kernel\components\finsh\cmd.o
__fsym_list_mempool                               build\kernel\components\finsh\cmd.o
__fsym_list_mempool_desc                          build\kernel\components\finsh\cmd.o
__fsym_list_mempool_name                          build\kernel\components\finsh\cmd.o
__fsym_list_msgqueue                              build\kernel\components\finsh\cmd.o
__fsym_list_msgqueue_desc                         build\kernel\components\finsh\cmd.o
__fsym_list_msgqueue_name                         build\kernel\components\finsh\cmd.o
__fsym_list_mutex                                 build\kernel\components\finsh\cmd.o
__fsym_list_mutex_desc                            build\kernel\components\finsh\cmd.o
__fsym_list_mutex_name                            build\kernel\components\finsh\cmd.o
__fsym_list_sem                                   build\kernel\components\finsh\cmd.o
__fsym_list_sem_desc                              build\kernel\components\finsh\cmd.o
__fsym_list_sem_name                              build\kernel\components\finsh\cmd.o
__fsym_list_thread                                build\kernel\components\finsh\cmd.o
__fsym_list_thread_desc                           build\kernel\components\finsh\cmd.o
__fsym_list_thread_name                           build\kernel\components\finsh\cmd.o
__fsym_list_timer                                 build\kernel\components\finsh\cmd.o
__fsym_list_timer_desc                            build\kernel\components\finsh\cmd.o
__fsym_list_timer_name                            build\kernel\components\finsh\cmd.o
__fsym_ps                                         build\kernel\components\finsh\msh.o
__fsym_ps_desc                                    build\kernel\components\finsh\msh.o
__fsym_ps_name                                    build\kernel\components\finsh\msh.o
__fsym_version                                    build\kernel\components\finsh\cmd.o
__fsym_version_desc                               build\kernel\components\finsh\cmd.o
__fsym_version_name                               build\kernel\components\finsh\cmd.o
__fsymtab_end                                     build\kernel\components\finsh\shell.o
__fsymtab_start                                   build\kernel\components\finsh\shell.o
__libc_fini                                       d:/keil_v5/os/rtthread/env-windows-v1.3.5/tools/gnu_gcc/arm_gcc/mingw/bin/../lib/gcc/arm-none-eabi/10.3.1/../../../../arm-none-eabi/lib/thumb/v7e-m+fp/hard\libc.a(lib_a-__call_atexit.o)
__libc_fini_array                                 d:/keil_v5/os/rtthread/env-windows-v1.3.5/tools/gnu_gcc/arm_gcc/mingw/bin/../lib/gcc/arm-none-eabi/10.3.1/../../../../arm-none-eabi/lib/thumb/v7e-m+fp/hard\libc.a(lib_a-fini.o)
                                                  d:/keil_v5/os/rtthread/env-windows-v1.3.5/tools/gnu_gcc/arm_gcc/mingw/bin/../lib/gcc/arm-none-eabi/10.3.1/../../../../arm-none-eabi/lib/thumb/v7e-m+fp/hard\libc.a(lib_a-__call_atexit.o)
                                                  d:/keil_v5/os/rtthread/env-windows-v1.3.5/tools/gnu_gcc/arm_gcc/mingw/bin/../lib/gcc/arm-none-eabi/10.3.1/../../../../arm-none-eabi/lib/thumb/v7e-m+fp/hard/crt0.o
__libc_init_array                                 build\kernel\components\libc\compilers\newlib\syscalls.o
                                                  d:/keil_v5/os/rtthread/env-windows-v1.3.5/tools/gnu_gcc/arm_gcc/mingw/bin/../lib/gcc/arm-none-eabi/10.3.1/../../../../arm-none-eabi/lib/thumb/v7e-m+fp/hard/crt0.o
__lock___arc4random_mutex                         d:/keil_v5/os/rtthread/env-windows-v1.3.5/tools/gnu_gcc/arm_gcc/mingw/bin/../lib/gcc/arm-none-eabi/10.3.1/../../../../arm-none-eabi/lib/thumb/v7e-m+fp/hard\libc.a(lib_a-lock.o)
__lock___at_quick_exit_mutex                      d:/keil_v5/os/rtthread/env-windows-v1.3.5/tools/gnu_gcc/arm_gcc/mingw/bin/../lib/gcc/arm-none-eabi/10.3.1/../../../../arm-none-eabi/lib/thumb/v7e-m+fp/hard\libc.a(lib_a-lock.o)
__lock___atexit_recursive_mutex                   d:/keil_v5/os/rtthread/env-windows-v1.3.5/tools/gnu_gcc/arm_gcc/mingw/bin/../lib/gcc/arm-none-eabi/10.3.1/../../../../arm-none-eabi/lib/thumb/v7e-m+fp/hard\libc.a(lib_a-lock.o)
                                                  d:/keil_v5/os/rtthread/env-windows-v1.3.5/tools/gnu_gcc/arm_gcc/mingw/bin/../lib/gcc/arm-none-eabi/10.3.1/../../../../arm-none-eabi/lib/thumb/v7e-m+fp/hard\libc.a(lib_a-__call_atexit.o)
__lock___dd_hash_mutex                            d:/keil_v5/os/rtthread/env-windows-v1.3.5/tools/gnu_gcc/arm_gcc/mingw/bin/../lib/gcc/arm-none-eabi/10.3.1/../../../../arm-none-eabi/lib/thumb/v7e-m+fp/hard\libc.a(lib_a-lock.o)
__lock___env_recursive_mutex                      d:/keil_v5/os/rtthread/env-windows-v1.3.5/tools/gnu_gcc/arm_gcc/mingw/bin/../lib/gcc/arm-none-eabi/10.3.1/../../../../arm-none-eabi/lib/thumb/v7e-m+fp/hard\libc.a(lib_a-lock.o)
__lock___malloc_recursive_mutex                   d:/keil_v5/os/rtthread/env-windows-v1.3.5/tools/gnu_gcc/arm_gcc/mingw/bin/../lib/gcc/arm-none-eabi/10.3.1/../../../../arm-none-eabi/lib/thumb/v7e-m+fp/hard\libc.a(lib_a-lock.o)
__lock___sfp_recursive_mutex                      d:/keil_v5/os/rtthread/env-windows-v1.3.5/tools/gnu_gcc/arm_gcc/mingw/bin/../lib/gcc/arm-none-eabi/10.3.1/../../../../arm-none-eabi/lib/thumb/v7e-m+fp/hard\libc.a(lib_a-lock.o)
__lock___sinit_recursive_mutex                    d:/keil_v5/os/rtthread/env-windows-v1.3.5/tools/gnu_gcc/arm_gcc/mingw/bin/../lib/gcc/arm-none-eabi/10.3.1/../../../../arm-none-eabi/lib/thumb/v7e-m+fp/hard\libc.a(lib_a-lock.o)
__lock___tz_mutex                                 d:/keil_v5/os/rtthread/env-windows-v1.3.5/tools/gnu_gcc/arm_gcc/mingw/bin/../lib/gcc/arm-none-eabi/10.3.1/../../../../arm-none-eabi/lib/thumb/v7e-m+fp/hard\libc.a(lib_a-lock.o)
__lowest_bit_bitmap                               build\kernel\src\kservice.o
__muldf3                                          d:/keil_v5/os/rtthread/env-windows-v1.3.5/tools/gnu_gcc/arm_gcc/mingw/bin/../lib/gcc/arm-none-eabi/10.3.1/thumb/v7e-m+fp/hard\libgcc.a(_arm_muldivdf3.o)
                                                  d:/keil_v5/os/rtthread/env-windows-v1.3.5/tools/gnu_gcc/arm_gcc/mingw/bin/../lib/gcc/arm-none-eabi/10.3.1/thumb/v7e-m+fp/hard\libgcc.a(_arm_muldf3.o)
__register_exitproc                               d:/keil_v5/os/rtthread/env-windows-v1.3.5/tools/gnu_gcc/arm_gcc/mingw/bin/../lib/gcc/arm-none-eabi/10.3.1/../../../../arm-none-eabi/lib/thumb/v7e-m+fp/hard\libc.a(lib_a-__atexit.o)
                                                  d:/keil_v5/os/rtthread/env-windows-v1.3.5/tools/gnu_gcc/arm_gcc/mingw/bin/../lib/gcc/arm-none-eabi/10.3.1/../../../../arm-none-eabi/lib/thumb/v7e-m+fp/hard\libc.a(lib_a-atexit.o)
__register_frame_info                             d:/keil_v5/os/rtthread/env-windows-v1.3.5/tools/gnu_gcc/arm_gcc/mingw/bin/../lib/gcc/arm-none-eabi/10.3.1/thumb/v7e-m+fp/hard/crtbegin.o
__retarget_lock_acquire                           d:/keil_v5/os/rtthread/env-windows-v1.3.5/tools/gnu_gcc/arm_gcc/mingw/bin/../lib/gcc/arm-none-eabi/10.3.1/../../../../arm-none-eabi/lib/thumb/v7e-m+fp/hard\libc.a(lib_a-lock.o)
__retarget_lock_acquire_recursive                 d:/keil_v5/os/rtthread/env-windows-v1.3.5/tools/gnu_gcc/arm_gcc/mingw/bin/../lib/gcc/arm-none-eabi/10.3.1/../../../../arm-none-eabi/lib/thumb/v7e-m+fp/hard\libc.a(lib_a-lock.o)
                                                  d:/keil_v5/os/rtthread/env-windows-v1.3.5/tools/gnu_gcc/arm_gcc/mingw/bin/../lib/gcc/arm-none-eabi/10.3.1/../../../../arm-none-eabi/lib/thumb/v7e-m+fp/hard\libc.a(lib_a-__atexit.o)
                                                  d:/keil_v5/os/rtthread/env-windows-v1.3.5/tools/gnu_gcc/arm_gcc/mingw/bin/../lib/gcc/arm-none-eabi/10.3.1/../../../../arm-none-eabi/lib/thumb/v7e-m+fp/hard\libc.a(lib_a-__call_atexit.o)
__retarget_lock_close                             d:/keil_v5/os/rtthread/env-windows-v1.3.5/tools/gnu_gcc/arm_gcc/mingw/bin/../lib/gcc/arm-none-eabi/10.3.1/../../../../arm-none-eabi/lib/thumb/v7e-m+fp/hard\libc.a(lib_a-lock.o)
__retarget_lock_close_recursive                   d:/keil_v5/os/rtthread/env-windows-v1.3.5/tools/gnu_gcc/arm_gcc/mingw/bin/../lib/gcc/arm-none-eabi/10.3.1/../../../../arm-none-eabi/lib/thumb/v7e-m+fp/hard\libc.a(lib_a-lock.o)
__retarget_lock_init                              d:/keil_v5/os/rtthread/env-windows-v1.3.5/tools/gnu_gcc/arm_gcc/mingw/bin/../lib/gcc/arm-none-eabi/10.3.1/../../../../arm-none-eabi/lib/thumb/v7e-m+fp/hard\libc.a(lib_a-lock.o)
__retarget_lock_init_recursive                    d:/keil_v5/os/rtthread/env-windows-v1.3.5/tools/gnu_gcc/arm_gcc/mingw/bin/../lib/gcc/arm-none-eabi/10.3.1/../../../../arm-none-eabi/lib/thumb/v7e-m+fp/hard\libc.a(lib_a-lock.o)
__retarget_lock_release                           d:/keil_v5/os/rtthread/env-windows-v1.3.5/tools/gnu_gcc/arm_gcc/mingw/bin/../lib/gcc/arm-none-eabi/10.3.1/../../../../arm-none-eabi/lib/thumb/v7e-m+fp/hard\libc.a(lib_a-lock.o)
__retarget_lock_release_recursive                 d:/keil_v5/os/rtthread/env-windows-v1.3.5/tools/gnu_gcc/arm_gcc/mingw/bin/../lib/gcc/arm-none-eabi/10.3.1/../../../../arm-none-eabi/lib/thumb/v7e-m+fp/hard\libc.a(lib_a-lock.o)
                                                  d:/keil_v5/os/rtthread/env-windows-v1.3.5/tools/gnu_gcc/arm_gcc/mingw/bin/../lib/gcc/arm-none-eabi/10.3.1/../../../../arm-none-eabi/lib/thumb/v7e-m+fp/hard\libc.a(lib_a-__atexit.o)
                                                  d:/keil_v5/os/rtthread/env-windows-v1.3.5/tools/gnu_gcc/arm_gcc/mingw/bin/../lib/gcc/arm-none-eabi/10.3.1/../../../../arm-none-eabi/lib/thumb/v7e-m+fp/hard\libc.a(lib_a-__call_atexit.o)
__retarget_lock_try_acquire                       d:/keil_v5/os/rtthread/env-windows-v1.3.5/tools/gnu_gcc/arm_gcc/mingw/bin/../lib/gcc/arm-none-eabi/10.3.1/../../../../arm-none-eabi/lib/thumb/v7e-m+fp/hard\libc.a(lib_a-lock.o)
__retarget_lock_try_acquire_recursive             d:/keil_v5/os/rtthread/env-windows-v1.3.5/tools/gnu_gcc/arm_gcc/mingw/bin/../lib/gcc/arm-none-eabi/10.3.1/../../../../arm-none-eabi/lib/thumb/v7e-m+fp/hard\libc.a(lib_a-lock.o)
__rt_ffs                                          build\kernel\src\kservice.o
                                                  build\kernel\src\scheduler.o
__rt_init_ad7190_init                             build\packages\ad7190\ad7190.o
__rt_init_ad7811_init                             build\packages\dac7811\dac7811.o
__rt_init_ad983x_init                             build\packages\ad983x\ad983x.o
__rt_init_finsh_system_init                       build\kernel\components\finsh\shell.o
__rt_init_gd32_hw_usart_init                      libraries\gd32_drivers\drv_usart.o
__rt_init_rs232_link                              build\applications\rs232_link.o
__rt_init_rt_hw_pin_init                          libraries\gd32_drivers\drv_gpio.o
__rt_init_rt_soft_spi_init                        libraries\gd32_drivers\drv_soft_spi.o
__rt_init_rt_work_sys_workqueue_init              build\kernel\components\drivers\ipc\workqueue.o
__rt_init_rti_board_end                           build\kernel\src\components.o
__rt_init_rti_board_start                         build\kernel\src\components.o
__rt_init_rti_end                                 build\kernel\src\components.o
__rt_init_rti_start                               build\kernel\src\components.o
__rt_init_ulog_console_backend_init               build\kernel\components\utilities\ulog\backend\console_be.o
__rt_init_ulog_init                               build\kernel\components\utilities\ulog\ulog.o
__rt_libc_exit                                    build\kernel\components\libc\compilers\common\stdlib.o
                                                  build\kernel\components\libc\compilers\newlib\syscalls.o
__stack                                           d:/keil_v5/os/rtthread/env-windows-v1.3.5/tools/gnu_gcc/arm_gcc/mingw/bin/../lib/gcc/arm-none-eabi/10.3.1/../../../../arm-none-eabi/lib/thumb/v7e-m+fp/hard/crt0.o
__udivmoddi4                                      d:/keil_v5/os/rtthread/env-windows-v1.3.5/tools/gnu_gcc/arm_gcc/mingw/bin/../lib/gcc/arm-none-eabi/10.3.1/thumb/v7e-m+fp/hard\libgcc.a(_udivmoddi4.o)
                                                  d:/keil_v5/os/rtthread/env-windows-v1.3.5/tools/gnu_gcc/arm_gcc/mingw/bin/../lib/gcc/arm-none-eabi/10.3.1/thumb/v7e-m+fp/hard\libgcc.a(_aeabi_ldivmod.o)
__wqueue_default_wake                             build\kernel\components\drivers\ipc\waitqueue.o
_atoi_r                                           d:/keil_v5/os/rtthread/env-windows-v1.3.5/tools/gnu_gcc/arm_gcc/mingw/bin/../lib/gcc/arm-none-eabi/10.3.1/../../../../arm-none-eabi/lib/thumb/v7e-m+fp/hard\libc.a(lib_a-atoi.o)
_calloc_r                                         build\kernel\components\libc\compilers\newlib\syscalls.o
_close_r                                          build\kernel\components\libc\compilers\newlib\syscalls.o
_ctype_                                           d:/keil_v5/os/rtthread/env-windows-v1.3.5/tools/gnu_gcc/arm_gcc/mingw/bin/../lib/gcc/arm-none-eabi/10.3.1/../../../../arm-none-eabi/lib/thumb/v7e-m+fp/hard\libc.a(lib_a-ctype_.o)
                                                  d:/keil_v5/os/rtthread/env-windows-v1.3.5/tools/gnu_gcc/arm_gcc/mingw/bin/../lib/gcc/arm-none-eabi/10.3.1/../../../../arm-none-eabi/lib/thumb/v7e-m+fp/hard\libc.a(lib_a-strtol.o)
_edata                                            libraries\GD32F30x_Firmware_Library\CMSIS\GD\GD32F30x\Source\GCC\startup_gd32f30x_hd.o
_estack                                           libraries\GD32F30x_Firmware_Library\CMSIS\GD\GD32F30x\Source\GCC\startup_gd32f30x_hd.o
_execve_r                                         build\kernel\components\libc\compilers\newlib\syscalls.o
_exit                                             build\kernel\components\libc\compilers\newlib\syscalls.o
                                                  d:/keil_v5/os/rtthread/env-windows-v1.3.5/tools/gnu_gcc/arm_gcc/mingw/bin/../lib/gcc/arm-none-eabi/10.3.1/../../../../arm-none-eabi/lib/thumb/v7e-m+fp/hard\libc.a(lib_a-exit.o)
_fcntl_r                                          build\kernel\components\libc\compilers\newlib\syscalls.o
_fini                                             d:/keil_v5/os/rtthread/env-windows-v1.3.5/tools/gnu_gcc/arm_gcc/mingw/bin/../lib/gcc/arm-none-eabi/10.3.1/thumb/v7e-m+fp/hard/crti.o
                                                  d:/keil_v5/os/rtthread/env-windows-v1.3.5/tools/gnu_gcc/arm_gcc/mingw/bin/../lib/gcc/arm-none-eabi/10.3.1/../../../../arm-none-eabi/lib/thumb/v7e-m+fp/hard\libc.a(lib_a-fini.o)
_fork_r                                           build\kernel\components\libc\compilers\newlib\syscalls.o
_free_r                                           build\kernel\components\libc\compilers\newlib\syscalls.o
_fstat_r                                          build\kernel\components\libc\compilers\newlib\syscalls.o
_getpid_r                                         build\kernel\components\libc\compilers\newlib\syscalls.o
_global_impure_ptr                                d:/keil_v5/os/rtthread/env-windows-v1.3.5/tools/gnu_gcc/arm_gcc/mingw/bin/../lib/gcc/arm-none-eabi/10.3.1/../../../../arm-none-eabi/lib/thumb/v7e-m+fp/hard\libc.a(lib_a-impure.o)
                                                  d:/keil_v5/os/rtthread/env-windows-v1.3.5/tools/gnu_gcc/arm_gcc/mingw/bin/../lib/gcc/arm-none-eabi/10.3.1/../../../../arm-none-eabi/lib/thumb/v7e-m+fp/hard\libc.a(lib_a-__atexit.o)
                                                  d:/keil_v5/os/rtthread/env-windows-v1.3.5/tools/gnu_gcc/arm_gcc/mingw/bin/../lib/gcc/arm-none-eabi/10.3.1/../../../../arm-none-eabi/lib/thumb/v7e-m+fp/hard\libc.a(lib_a-__call_atexit.o)
                                                  d:/keil_v5/os/rtthread/env-windows-v1.3.5/tools/gnu_gcc/arm_gcc/mingw/bin/../lib/gcc/arm-none-eabi/10.3.1/../../../../arm-none-eabi/lib/thumb/v7e-m+fp/hard\libc.a(lib_a-exit.o)
_impure_ptr                                       d:/keil_v5/os/rtthread/env-windows-v1.3.5/tools/gnu_gcc/arm_gcc/mingw/bin/../lib/gcc/arm-none-eabi/10.3.1/../../../../arm-none-eabi/lib/thumb/v7e-m+fp/hard\libc.a(lib_a-impure.o)
                                                  d:/keil_v5/os/rtthread/env-windows-v1.3.5/tools/gnu_gcc/arm_gcc/mingw/bin/../lib/gcc/arm-none-eabi/10.3.1/../../../../arm-none-eabi/lib/thumb/v7e-m+fp/hard\libc.a(lib_a-strtol.o)
_init                                             d:/keil_v5/os/rtthread/env-windows-v1.3.5/tools/gnu_gcc/arm_gcc/mingw/bin/../lib/gcc/arm-none-eabi/10.3.1/thumb/v7e-m+fp/hard/crti.o
_isatty_r                                         build\kernel\components\libc\compilers\newlib\syscalls.o
_kill_r                                           build\kernel\components\libc\compilers\newlib\syscalls.o
_link_r                                           build\kernel\components\libc\compilers\newlib\syscalls.o
_lseek_r                                          build\kernel\components\libc\compilers\newlib\syscalls.o
_mainCRTStartup                                   d:/keil_v5/os/rtthread/env-windows-v1.3.5/tools/gnu_gcc/arm_gcc/mingw/bin/../lib/gcc/arm-none-eabi/10.3.1/../../../../arm-none-eabi/lib/thumb/v7e-m+fp/hard/crt0.o
_malloc_r                                         build\kernel\components\libc\compilers\newlib\syscalls.o
_mkdir_r                                          build\kernel\components\libc\compilers\newlib\syscalls.o
_open_r                                           build\kernel\components\libc\compilers\newlib\syscalls.o
_read_r                                           build\kernel\components\libc\compilers\newlib\syscalls.o
_realloc_r                                        build\kernel\components\libc\compilers\newlib\syscalls.o
_rename_r                                         build\kernel\components\libc\compilers\newlib\syscalls.o
_rt_errno                                         build\kernel\src\kservice.o
                                                  build\kernel\components\libc\compilers\newlib\syscalls.o
_sdata                                            libraries\GD32F30x_Firmware_Library\CMSIS\GD\GD32F30x\Source\GCC\startup_gd32f30x_hd.o
_sidata                                           libraries\GD32F30x_Firmware_Library\CMSIS\GD\GD32F30x\Source\GCC\startup_gd32f30x_hd.o
_stack_init                                       d:/keil_v5/os/rtthread/env-windows-v1.3.5/tools/gnu_gcc/arm_gcc/mingw/bin/../lib/gcc/arm-none-eabi/10.3.1/../../../../arm-none-eabi/lib/thumb/v7e-m+fp/hard/crt0.o
_start                                            d:/keil_v5/os/rtthread/env-windows-v1.3.5/tools/gnu_gcc/arm_gcc/mingw/bin/../lib/gcc/arm-none-eabi/10.3.1/../../../../arm-none-eabi/lib/thumb/v7e-m+fp/hard/crt0.o
_stat_r                                           build\kernel\components\libc\compilers\newlib\syscalls.o
_strtol_r                                         d:/keil_v5/os/rtthread/env-windows-v1.3.5/tools/gnu_gcc/arm_gcc/mingw/bin/../lib/gcc/arm-none-eabi/10.3.1/../../../../arm-none-eabi/lib/thumb/v7e-m+fp/hard\libc.a(lib_a-strtol.o)
                                                  d:/keil_v5/os/rtthread/env-windows-v1.3.5/tools/gnu_gcc/arm_gcc/mingw/bin/../lib/gcc/arm-none-eabi/10.3.1/../../../../arm-none-eabi/lib/thumb/v7e-m+fp/hard\libc.a(lib_a-atoi.o)
_syscall_table_begin                              build\kernel\components\finsh\shell.o
                                                  build\kernel\components\finsh\msh.o
_syscall_table_end                                build\kernel\components\finsh\shell.o
                                                  build\kernel\components\finsh\msh.o
_unlink_r                                         build\kernel\components\libc\compilers\newlib\syscalls.o
_wait_r                                           build\kernel\components\libc\compilers\newlib\syscalls.o
_write_r                                          build\kernel\components\libc\compilers\newlib\syscalls.o
ad7190_buf                                        build\packages\ad7190\ad7190.o
ad7190_data                                       build\packages\ad7190\ad7190.o
ad7190_pack                                       build\packages\ad7190\ad7190.o
ad7190_read_channel                               build\packages\ad7190\ad7190.o
ad7190_read_spi                                   build\packages\ad7190\ad7190.o
ad983x_set_frequency                              build\packages\ad983x\ad983x.o
ad983x_set_phase                                  build\packages\ad983x\ad983x.o
                                                  build\applications\rs232_link.o
asctime                                           build\kernel\components\libc\compilers\common\time.o
asctime_r                                         build\kernel\components\libc\compilers\common\time.o
atexit                                            d:/keil_v5/os/rtthread/env-windows-v1.3.5/tools/gnu_gcc/arm_gcc/mingw/bin/../lib/gcc/arm-none-eabi/10.3.1/../../../../arm-none-eabi/lib/thumb/v7e-m+fp/hard\libc.a(lib_a-atexit.o)
                                                  d:/keil_v5/os/rtthread/env-windows-v1.3.5/tools/gnu_gcc/arm_gcc/mingw/bin/../lib/gcc/arm-none-eabi/10.3.1/../../../../arm-none-eabi/lib/thumb/v7e-m+fp/hard\libc.a(lib_a-__call_atexit.o)
                                                  d:/keil_v5/os/rtthread/env-windows-v1.3.5/tools/gnu_gcc/arm_gcc/mingw/bin/../lib/gcc/arm-none-eabi/10.3.1/../../../../arm-none-eabi/lib/thumb/v7e-m+fp/hard/crt0.o
atoi                                              d:/keil_v5/os/rtthread/env-windows-v1.3.5/tools/gnu_gcc/arm_gcc/mingw/bin/../lib/gcc/arm-none-eabi/10.3.1/../../../../arm-none-eabi/lib/thumb/v7e-m+fp/hard\libc.a(lib_a-atoi.o)
                                                  build\packages\dac7811\dac7811.o
clock                                             build\kernel\components\libc\compilers\common\time.o
cmd_free                                          build\kernel\components\finsh\msh.o
cmd_ps                                            build\kernel\components\finsh\msh.o
cnt                                               build\packages\ad7190\ad7190.o
cobs_decode_frame                                 build\packages\cobs\cobs.o
                                                  build\applications\rs232_link.o
cobs_decode_init                                  build\packages\cobs\cobs.o
                                                  build\applications\rs232_link.o
cobs_encode_end_frame                             build\packages\cobs\cobs.o
                                                  build\applications\rs232_link.o
cobs_encode_frame                                 build\packages\cobs\cobs.o
                                                  build\applications\rs232_link.o
cobs_encode_reset                                 build\packages\cobs\cobs.o
                                                  build\applications\rs232_link.o
cobs_handler                                      build\applications\rs232_link.o
ctime                                             build\kernel\components\libc\compilers\common\time.o
ctime_r                                           build\kernel\components\libc\compilers\common\time.o
dac7811_set_shift_reg                             build\packages\dac7811\dac7811.o
                                                  build\applications\rs232_link.o
dma_channel_disable                               libraries\GD32F30x_Firmware_Library\GD32F30x_standard_peripheral\Source\gd32f30x_dma.o
                                                  libraries\gd32_drivers\drv_usart.o
dma_channel_enable                                libraries\GD32F30x_Firmware_Library\GD32F30x_standard_peripheral\Source\gd32f30x_dma.o
                                                  libraries\gd32_drivers\drv_usart.o
dma_circulation_disable                           libraries\GD32F30x_Firmware_Library\GD32F30x_standard_peripheral\Source\gd32f30x_dma.o
                                                  libraries\gd32_drivers\drv_usart.o
dma_circulation_enable                            libraries\GD32F30x_Firmware_Library\GD32F30x_standard_peripheral\Source\gd32f30x_dma.o
                                                  libraries\gd32_drivers\drv_usart.o
dma_deinit                                        libraries\GD32F30x_Firmware_Library\GD32F30x_standard_peripheral\Source\gd32f30x_dma.o
                                                  libraries\gd32_drivers\drv_usart.o
dma_flag_clear                                    libraries\GD32F30x_Firmware_Library\GD32F30x_standard_peripheral\Source\gd32f30x_dma.o
dma_flag_get                                      libraries\GD32F30x_Firmware_Library\GD32F30x_standard_peripheral\Source\gd32f30x_dma.o
dma_init                                          libraries\GD32F30x_Firmware_Library\GD32F30x_standard_peripheral\Source\gd32f30x_dma.o
                                                  libraries\gd32_drivers\drv_usart.o
dma_interrupt_disable                             libraries\GD32F30x_Firmware_Library\GD32F30x_standard_peripheral\Source\gd32f30x_dma.o
dma_interrupt_enable                              libraries\GD32F30x_Firmware_Library\GD32F30x_standard_peripheral\Source\gd32f30x_dma.o
                                                  libraries\gd32_drivers\drv_usart.o
dma_interrupt_flag_clear                          libraries\GD32F30x_Firmware_Library\GD32F30x_standard_peripheral\Source\gd32f30x_dma.o
                                                  libraries\gd32_drivers\drv_usart.o
dma_interrupt_flag_get                            libraries\GD32F30x_Firmware_Library\GD32F30x_standard_peripheral\Source\gd32f30x_dma.o
                                                  libraries\gd32_drivers\drv_usart.o
dma_memory_address_config                         libraries\GD32F30x_Firmware_Library\GD32F30x_standard_peripheral\Source\gd32f30x_dma.o
                                                  libraries\gd32_drivers\drv_usart.o
dma_memory_increase_disable                       libraries\GD32F30x_Firmware_Library\GD32F30x_standard_peripheral\Source\gd32f30x_dma.o
dma_memory_increase_enable                        libraries\GD32F30x_Firmware_Library\GD32F30x_standard_peripheral\Source\gd32f30x_dma.o
dma_memory_to_memory_disable                      libraries\GD32F30x_Firmware_Library\GD32F30x_standard_peripheral\Source\gd32f30x_dma.o
                                                  libraries\gd32_drivers\drv_usart.o
dma_memory_to_memory_enable                       libraries\GD32F30x_Firmware_Library\GD32F30x_standard_peripheral\Source\gd32f30x_dma.o
dma_memory_width_config                           libraries\GD32F30x_Firmware_Library\GD32F30x_standard_peripheral\Source\gd32f30x_dma.o
dma_periph_address_config                         libraries\GD32F30x_Firmware_Library\GD32F30x_standard_peripheral\Source\gd32f30x_dma.o
dma_periph_increase_disable                       libraries\GD32F30x_Firmware_Library\GD32F30x_standard_peripheral\Source\gd32f30x_dma.o
dma_periph_increase_enable                        libraries\GD32F30x_Firmware_Library\GD32F30x_standard_peripheral\Source\gd32f30x_dma.o
dma_periph_width_config                           libraries\GD32F30x_Firmware_Library\GD32F30x_standard_peripheral\Source\gd32f30x_dma.o
dma_priority_config                               libraries\GD32F30x_Firmware_Library\GD32F30x_standard_peripheral\Source\gd32f30x_dma.o
dma_struct_para_init                              libraries\GD32F30x_Firmware_Library\GD32F30x_standard_peripheral\Source\gd32f30x_dma.o
                                                  libraries\gd32_drivers\drv_usart.o
dma_transfer_direction_config                     libraries\GD32F30x_Firmware_Library\GD32F30x_standard_peripheral\Source\gd32f30x_dma.o
dma_transfer_number_config                        libraries\GD32F30x_Firmware_Library\GD32F30x_standard_peripheral\Source\gd32f30x_dma.o
                                                  libraries\gd32_drivers\drv_usart.o
dma_transfer_number_get                           libraries\GD32F30x_Firmware_Library\GD32F30x_standard_peripheral\Source\gd32f30x_dma.o
                                                  libraries\gd32_drivers\drv_usart.o
encode_handler                                    build\applications\rs232_link.o
entry                                             build\kernel\src\components.o
                                                  libraries\GD32F30x_Firmware_Library\CMSIS\GD\GD32F30x\Source\GCC\startup_gd32f30x_hd.o
exit                                              d:/keil_v5/os/rtthread/env-windows-v1.3.5/tools/gnu_gcc/arm_gcc/mingw/bin/../lib/gcc/arm-none-eabi/10.3.1/../../../../arm-none-eabi/lib/thumb/v7e-m+fp/hard\libc.a(lib_a-exit.o)
                                                  d:/keil_v5/os/rtthread/env-windows-v1.3.5/tools/gnu_gcc/arm_gcc/mingw/bin/../lib/gcc/arm-none-eabi/10.3.1/../../../../arm-none-eabi/lib/thumb/v7e-m+fp/hard/crt0.o
exti_deinit                                       libraries\GD32F30x_Firmware_Library\GD32F30x_standard_peripheral\Source\gd32f30x_exti.o
exti_event_disable                                libraries\GD32F30x_Firmware_Library\GD32F30x_standard_peripheral\Source\gd32f30x_exti.o
exti_event_enable                                 libraries\GD32F30x_Firmware_Library\GD32F30x_standard_peripheral\Source\gd32f30x_exti.o
exti_flag_clear                                   libraries\GD32F30x_Firmware_Library\GD32F30x_standard_peripheral\Source\gd32f30x_exti.o
exti_flag_get                                     libraries\GD32F30x_Firmware_Library\GD32F30x_standard_peripheral\Source\gd32f30x_exti.o
exti_init                                         libraries\GD32F30x_Firmware_Library\GD32F30x_standard_peripheral\Source\gd32f30x_exti.o
                                                  libraries\gd32_drivers\drv_gpio.o
exti_interrupt_disable                            libraries\GD32F30x_Firmware_Library\GD32F30x_standard_peripheral\Source\gd32f30x_exti.o
exti_interrupt_enable                             libraries\GD32F30x_Firmware_Library\GD32F30x_standard_peripheral\Source\gd32f30x_exti.o
exti_interrupt_flag_clear                         libraries\GD32F30x_Firmware_Library\GD32F30x_standard_peripheral\Source\gd32f30x_exti.o
                                                  libraries\gd32_drivers\drv_gpio.o
exti_interrupt_flag_get                           libraries\GD32F30x_Firmware_Library\GD32F30x_standard_peripheral\Source\gd32f30x_exti.o
                                                  libraries\gd32_drivers\drv_gpio.o
exti_software_interrupt_disable                   libraries\GD32F30x_Firmware_Library\GD32F30x_standard_peripheral\Source\gd32f30x_exti.o
exti_software_interrupt_enable                    libraries\GD32F30x_Firmware_Library\GD32F30x_standard_peripheral\Source\gd32f30x_exti.o
finsh_get_device                                  build\kernel\components\finsh\shell.o
finsh_get_echo                                    build\kernel\components\finsh\shell.o
finsh_get_prompt                                  build\kernel\components\finsh\shell.o
finsh_get_prompt_mode                             build\kernel\components\finsh\shell.o
finsh_getchar                                     build\kernel\components\finsh\shell.o
finsh_set_device                                  build\kernel\components\finsh\shell.o
finsh_set_echo                                    build\kernel\components\finsh\shell.o
finsh_set_prompt                                  build\kernel\components\finsh\shell.o
finsh_set_prompt_mode                             build\kernel\components\finsh\shell.o
finsh_system_function_init                        build\kernel\components\finsh\shell.o
finsh_system_init                                 build\kernel\components\finsh\shell.o
finsh_thread_entry                                build\kernel\components\finsh\shell.o
flock                                             build\kernel\components\libc\compilers\newlib\syscalls.o
freq_2_reg                                        build\packages\ad983x\ad983x.o
g_pfnVectors                                      libraries\GD32F30x_Firmware_Library\CMSIS\GD\GD32F30x\Source\GCC\startup_gd32f30x_hd.o
gd32_hw_usart_init                                libraries\gd32_drivers\drv_usart.o
gd32_uart_gpio_init                               libraries\gd32_drivers\drv_usart.o
get_pin                                           libraries\gd32_drivers\drv_gpio.o
gettimeofday                                      build\kernel\components\libc\compilers\common\time.o
gmtime                                            build\kernel\components\libc\compilers\common\time.o
gmtime_r                                          build\kernel\components\libc\compilers\common\time.o
gpio_afio_deinit                                  libraries\GD32F30x_Firmware_Library\GD32F30x_standard_peripheral\Source\gd32f30x_gpio.o
gpio_bit_reset                                    libraries\GD32F30x_Firmware_Library\GD32F30x_standard_peripheral\Source\gd32f30x_gpio.o
gpio_bit_set                                      libraries\GD32F30x_Firmware_Library\GD32F30x_standard_peripheral\Source\gd32f30x_gpio.o
                                                  build\board\board.o
gpio_bit_write                                    libraries\GD32F30x_Firmware_Library\GD32F30x_standard_peripheral\Source\gd32f30x_gpio.o
                                                  libraries\gd32_drivers\drv_gpio.o
gpio_compensation_config                          libraries\GD32F30x_Firmware_Library\GD32F30x_standard_peripheral\Source\gd32f30x_gpio.o
gpio_compensation_flag_get                        libraries\GD32F30x_Firmware_Library\GD32F30x_standard_peripheral\Source\gd32f30x_gpio.o
gpio_deinit                                       libraries\GD32F30x_Firmware_Library\GD32F30x_standard_peripheral\Source\gd32f30x_gpio.o
gpio_event_output_config                          libraries\GD32F30x_Firmware_Library\GD32F30x_standard_peripheral\Source\gd32f30x_gpio.o
gpio_event_output_disable                         libraries\GD32F30x_Firmware_Library\GD32F30x_standard_peripheral\Source\gd32f30x_gpio.o
gpio_event_output_enable                          libraries\GD32F30x_Firmware_Library\GD32F30x_standard_peripheral\Source\gd32f30x_gpio.o
gpio_exti_source_select                           libraries\GD32F30x_Firmware_Library\GD32F30x_standard_peripheral\Source\gd32f30x_gpio.o
                                                  libraries\gd32_drivers\drv_gpio.o
gpio_init                                         libraries\GD32F30x_Firmware_Library\GD32F30x_standard_peripheral\Source\gd32f30x_gpio.o
                                                  libraries\gd32_drivers\drv_usart.o
                                                  libraries\gd32_drivers\drv_soft_spi.o
                                                  libraries\gd32_drivers\drv_gpio.o
                                                  build\board\board.o
gpio_input_bit_get                                libraries\GD32F30x_Firmware_Library\GD32F30x_standard_peripheral\Source\gd32f30x_gpio.o
                                                  libraries\gd32_drivers\drv_gpio.o
gpio_input_port_get                               libraries\GD32F30x_Firmware_Library\GD32F30x_standard_peripheral\Source\gd32f30x_gpio.o
gpio_output_bit_get                               libraries\GD32F30x_Firmware_Library\GD32F30x_standard_peripheral\Source\gd32f30x_gpio.o
gpio_output_port_get                              libraries\GD32F30x_Firmware_Library\GD32F30x_standard_peripheral\Source\gd32f30x_gpio.o
gpio_pin_lock                                     libraries\GD32F30x_Firmware_Library\GD32F30x_standard_peripheral\Source\gd32f30x_gpio.o
gpio_pin_remap_config                             libraries\GD32F30x_Firmware_Library\GD32F30x_standard_peripheral\Source\gd32f30x_gpio.o
                                                  build\board\board.o
gpio_port_write                                   libraries\GD32F30x_Firmware_Library\GD32F30x_standard_peripheral\Source\gd32f30x_gpio.o
hardware_init_hook                                d:/keil_v5/os/rtthread/env-windows-v1.3.5/tools/gnu_gcc/arm_gcc/mingw/bin/../lib/gcc/arm-none-eabi/10.3.1/../../../../arm-none-eabi/lib/thumb/v7e-m+fp/hard/crt0.o
i2s_disable                                       libraries\GD32F30x_Firmware_Library\GD32F30x_standard_peripheral\Source\gd32f30x_spi.o
i2s_enable                                        libraries\GD32F30x_Firmware_Library\GD32F30x_standard_peripheral\Source\gd32f30x_spi.o
i2s_init                                          libraries\GD32F30x_Firmware_Library\GD32F30x_standard_peripheral\Source\gd32f30x_spi.o
i2s_psc_config                                    libraries\GD32F30x_Firmware_Library\GD32F30x_standard_peripheral\Source\gd32f30x_spi.o
list_device                                       build\kernel\components\finsh\cmd.o
list_event                                        build\kernel\components\finsh\cmd.o
list_mailbox                                      build\kernel\components\finsh\cmd.o
list_mempool                                      build\kernel\components\finsh\cmd.o
list_msgqueue                                     build\kernel\components\finsh\cmd.o
list_mutex                                        build\kernel\components\finsh\cmd.o
list_sem                                          build\kernel\components\finsh\cmd.o
list_thread                                       build\kernel\components\finsh\cmd.o
                                                  build\kernel\components\finsh\msh.o
                                                  build\kernel\libcpu\arm\cortex-m4\cpuport.o
list_timer                                        build\kernel\components\finsh\cmd.o
localtime                                         build\kernel\components\libc\compilers\common\time.o
localtime_r                                       build\kernel\components\libc\compilers\common\time.o
main                                              build\applications\main.o
                                                  build\kernel\src\components.o
                                                  d:/keil_v5/os/rtthread/env-windows-v1.3.5/tools/gnu_gcc/arm_gcc/mingw/bin/../lib/gcc/arm-none-eabi/10.3.1/../../../../arm-none-eabi/lib/thumb/v7e-m+fp/hard/crt0.o
main_thread_entry                                 build\kernel\src\components.o
memcmp                                            d:/keil_v5/os/rtthread/env-windows-v1.3.5/tools/gnu_gcc/arm_gcc/mingw/bin/../lib/gcc/arm-none-eabi/10.3.1/../../../../arm-none-eabi/lib/thumb/v7e-m+fp/hard\libc.a(lib_a-memcmp.o)
                                                  build\kernel\components\finsh\shell.o
memset                                            d:/keil_v5/os/rtthread/env-windows-v1.3.5/tools/gnu_gcc/arm_gcc/mingw/bin/../lib/gcc/arm-none-eabi/10.3.1/../../../../arm-none-eabi/lib/thumb/v7e-m+fp/hard\libc.a(lib_a-memset.o)
                                                  libraries\gd32_drivers\drv_soft_spi.o
                                                  d:/keil_v5/os/rtthread/env-windows-v1.3.5/tools/gnu_gcc/arm_gcc/mingw/bin/../lib/gcc/arm-none-eabi/10.3.1/../../../../arm-none-eabi/lib/thumb/v7e-m+fp/hard/crt0.o
mktime                                            build\kernel\components\libc\compilers\common\time.o
msh_auto_complete                                 build\kernel\components\finsh\msh.o
                                                  build\kernel\components\finsh\shell.o
msh_exec                                          build\kernel\components\finsh\msh.o
                                                  build\kernel\components\libc\compilers\common\stdlib.o
                                                  build\kernel\components\finsh\shell.o
msh_help                                          build\kernel\components\finsh\msh.o
nvic_irq_disable                                  libraries\GD32F30x_Firmware_Library\GD32F30x_standard_peripheral\Source\gd32f30x_misc.o
                                                  libraries\gd32_drivers\drv_gpio.o
nvic_irq_enable                                   libraries\GD32F30x_Firmware_Library\GD32F30x_standard_peripheral\Source\gd32f30x_misc.o
                                                  libraries\gd32_drivers\drv_gpio.o
nvic_priority_group_set                           libraries\GD32F30x_Firmware_Library\GD32F30x_standard_peripheral\Source\gd32f30x_misc.o
nvic_vector_table_set                             libraries\GD32F30x_Firmware_Library\GD32F30x_standard_peripheral\Source\gd32f30x_misc.o
pin_irq_hdr_tab                                   libraries\gd32_drivers\drv_gpio.o
qspi_disable                                      libraries\GD32F30x_Firmware_Library\GD32F30x_standard_peripheral\Source\gd32f30x_spi.o
qspi_enable                                       libraries\GD32F30x_Firmware_Library\GD32F30x_standard_peripheral\Source\gd32f30x_spi.o
qspi_io23_output_disable                          libraries\GD32F30x_Firmware_Library\GD32F30x_standard_peripheral\Source\gd32f30x_spi.o
qspi_io23_output_enable                           libraries\GD32F30x_Firmware_Library\GD32F30x_standard_peripheral\Source\gd32f30x_spi.o
qspi_read_enable                                  libraries\GD32F30x_Firmware_Library\GD32F30x_standard_peripheral\Source\gd32f30x_spi.o
qspi_write_enable                                 libraries\GD32F30x_Firmware_Library\GD32F30x_standard_peripheral\Source\gd32f30x_spi.o
rad_2_reg                                         build\packages\ad983x\ad983x.o
rcu_adc_clock_config                              libraries\GD32F30x_Firmware_Library\GD32F30x_standard_peripheral\Source\gd32f30x_rcu.o
rcu_ahb_clock_config                              libraries\GD32F30x_Firmware_Library\GD32F30x_standard_peripheral\Source\gd32f30x_rcu.o
rcu_all_reset_flag_clear                          libraries\GD32F30x_Firmware_Library\GD32F30x_standard_peripheral\Source\gd32f30x_rcu.o
rcu_apb1_clock_config                             libraries\GD32F30x_Firmware_Library\GD32F30x_standard_peripheral\Source\gd32f30x_rcu.o
rcu_apb2_clock_config                             libraries\GD32F30x_Firmware_Library\GD32F30x_standard_peripheral\Source\gd32f30x_rcu.o
rcu_bkp_reset_disable                             libraries\GD32F30x_Firmware_Library\GD32F30x_standard_peripheral\Source\gd32f30x_rcu.o
rcu_bkp_reset_enable                              libraries\GD32F30x_Firmware_Library\GD32F30x_standard_peripheral\Source\gd32f30x_rcu.o
rcu_ck48m_clock_config                            libraries\GD32F30x_Firmware_Library\GD32F30x_standard_peripheral\Source\gd32f30x_rcu.o
rcu_ckout0_config                                 libraries\GD32F30x_Firmware_Library\GD32F30x_standard_peripheral\Source\gd32f30x_rcu.o
rcu_clock_freq_get                                libraries\GD32F30x_Firmware_Library\GD32F30x_standard_peripheral\Source\gd32f30x_rcu.o
                                                  libraries\GD32F30x_Firmware_Library\GD32F30x_standard_peripheral\Source\gd32f30x_spi.o
                                                  libraries\GD32F30x_Firmware_Library\GD32F30x_standard_peripheral\Source\gd32f30x_usart.o
rcu_deepsleep_voltage_set                         libraries\GD32F30x_Firmware_Library\GD32F30x_standard_peripheral\Source\gd32f30x_rcu.o
rcu_deinit                                        libraries\GD32F30x_Firmware_Library\GD32F30x_standard_peripheral\Source\gd32f30x_rcu.o
rcu_flag_get                                      libraries\GD32F30x_Firmware_Library\GD32F30x_standard_peripheral\Source\gd32f30x_rcu.o
rcu_hxtal_clock_monitor_disable                   libraries\GD32F30x_Firmware_Library\GD32F30x_standard_peripheral\Source\gd32f30x_rcu.o
rcu_hxtal_clock_monitor_enable                    libraries\GD32F30x_Firmware_Library\GD32F30x_standard_peripheral\Source\gd32f30x_rcu.o
rcu_interrupt_disable                             libraries\GD32F30x_Firmware_Library\GD32F30x_standard_peripheral\Source\gd32f30x_rcu.o
rcu_interrupt_enable                              libraries\GD32F30x_Firmware_Library\GD32F30x_standard_peripheral\Source\gd32f30x_rcu.o
rcu_interrupt_flag_clear                          libraries\GD32F30x_Firmware_Library\GD32F30x_standard_peripheral\Source\gd32f30x_rcu.o
rcu_interrupt_flag_get                            libraries\GD32F30x_Firmware_Library\GD32F30x_standard_peripheral\Source\gd32f30x_rcu.o
rcu_irc8m_adjust_value_set                        libraries\GD32F30x_Firmware_Library\GD32F30x_standard_peripheral\Source\gd32f30x_rcu.o
rcu_lxtal_drive_capability_config                 libraries\GD32F30x_Firmware_Library\GD32F30x_standard_peripheral\Source\gd32f30x_rcu.o
rcu_osci_bypass_mode_disable                      libraries\GD32F30x_Firmware_Library\GD32F30x_standard_peripheral\Source\gd32f30x_rcu.o
rcu_osci_bypass_mode_enable                       libraries\GD32F30x_Firmware_Library\GD32F30x_standard_peripheral\Source\gd32f30x_rcu.o
rcu_osci_off                                      libraries\GD32F30x_Firmware_Library\GD32F30x_standard_peripheral\Source\gd32f30x_rcu.o
rcu_osci_on                                       libraries\GD32F30x_Firmware_Library\GD32F30x_standard_peripheral\Source\gd32f30x_rcu.o
rcu_osci_stab_wait                                libraries\GD32F30x_Firmware_Library\GD32F30x_standard_peripheral\Source\gd32f30x_rcu.o
rcu_periph_clock_disable                          libraries\GD32F30x_Firmware_Library\GD32F30x_standard_peripheral\Source\gd32f30x_rcu.o
rcu_periph_clock_enable                           libraries\GD32F30x_Firmware_Library\GD32F30x_standard_peripheral\Source\gd32f30x_rcu.o
                                                  libraries\gd32_drivers\drv_usart.o
                                                  libraries\gd32_drivers\drv_soft_spi.o
                                                  libraries\gd32_drivers\drv_gpio.o
                                                  build\packages\dac7811\dac7811.o
                                                  build\packages\ad7190\ad7190.o
                                                  build\board\board.o
rcu_periph_clock_sleep_disable                    libraries\GD32F30x_Firmware_Library\GD32F30x_standard_peripheral\Source\gd32f30x_rcu.o
rcu_periph_clock_sleep_enable                     libraries\GD32F30x_Firmware_Library\GD32F30x_standard_peripheral\Source\gd32f30x_rcu.o
rcu_periph_reset_disable                          libraries\GD32F30x_Firmware_Library\GD32F30x_standard_peripheral\Source\gd32f30x_rcu.o
                                                  libraries\GD32F30x_Firmware_Library\GD32F30x_standard_peripheral\Source\gd32f30x_spi.o
                                                  libraries\GD32F30x_Firmware_Library\GD32F30x_standard_peripheral\Source\gd32f30x_gpio.o
                                                  libraries\GD32F30x_Firmware_Library\GD32F30x_standard_peripheral\Source\gd32f30x_usart.o
rcu_periph_reset_enable                           libraries\GD32F30x_Firmware_Library\GD32F30x_standard_peripheral\Source\gd32f30x_rcu.o
                                                  libraries\GD32F30x_Firmware_Library\GD32F30x_standard_peripheral\Source\gd32f30x_spi.o
                                                  libraries\GD32F30x_Firmware_Library\GD32F30x_standard_peripheral\Source\gd32f30x_gpio.o
                                                  libraries\GD32F30x_Firmware_Library\GD32F30x_standard_peripheral\Source\gd32f30x_usart.o
rcu_pll_config                                    libraries\GD32F30x_Firmware_Library\GD32F30x_standard_peripheral\Source\gd32f30x_rcu.o
rcu_pllpresel_config                              libraries\GD32F30x_Firmware_Library\GD32F30x_standard_peripheral\Source\gd32f30x_rcu.o
rcu_predv0_config                                 libraries\GD32F30x_Firmware_Library\GD32F30x_standard_peripheral\Source\gd32f30x_rcu.o
rcu_rtc_clock_config                              libraries\GD32F30x_Firmware_Library\GD32F30x_standard_peripheral\Source\gd32f30x_rcu.o
rcu_system_clock_source_config                    libraries\GD32F30x_Firmware_Library\GD32F30x_standard_peripheral\Source\gd32f30x_rcu.o
rcu_system_clock_source_get                       libraries\GD32F30x_Firmware_Library\GD32F30x_standard_peripheral\Source\gd32f30x_rcu.o
rcu_usb_clock_config                              libraries\GD32F30x_Firmware_Library\GD32F30x_standard_peripheral\Source\gd32f30x_rcu.o
rs232_send_msg                                    build\applications\rs232_link.o
                                                  build\packages\ad7190\ad7190.o
rt_application_init                               build\kernel\src\components.o
rt_assert_handler                                 build\kernel\src\kservice.o
                                                  build\kernel\components\drivers\spi\spi-bit-ops.o
                                                  build\kernel\components\drivers\spi\spi_dev.o
                                                  build\kernel\components\drivers\spi\spi_core.o
                                                  build\kernel\components\drivers\serial\serial.o
                                                  build\kernel\components\drivers\misc\pin.o
                                                  build\kernel\components\drivers\ipc\completion.o
                                                  build\kernel\components\drivers\ipc\ringblk_buf.o
                                                  build\kernel\components\drivers\ipc\ringbuffer.o
                                                  build\kernel\components\drivers\ipc\workqueue.o
                                                  build\kernel\components\drivers\ipc\waitqueue.o
                                                  build\kernel\components\drivers\ipc\dataqueue.o
                                                  build\kernel\components\drivers\ipc\pipe.o
                                                  libraries\gd32_drivers\drv_usart.o
                                                  libraries\gd32_drivers\drv_soft_spi.o
                                                  build\kernel\components\utilities\ulog\ulog.o
                                                  build\kernel\components\finsh\msh.o
                                                  build\kernel\components\finsh\shell.o
                                                  build\kernel\libcpu\arm\cortex-m4\cpuport.o
                                                  build\kernel\libcpu\arm\common\showmem.o
                                                  build\kernel\src\ipc.o
                                                  build\kernel\src\scheduler.o
                                                  build\kernel\src\mempool.o
                                                  build\kernel\src\device.o
                                                  build\kernel\src\components.o
                                                  build\kernel\src\timer.o
                                                  build\kernel\src\object.o
                                                  build\kernel\src\thread.o
                                                  build\kernel\src\mem.o
                                                  build\applications\rs232_link.o
rt_assert_hook                                    build\kernel\src\kservice.o
rt_assert_set_hook                                build\kernel\src\kservice.o
rt_calloc                                         build\kernel\src\kservice.o
                                                  build\kernel\components\libc\compilers\newlib\syscalls.o
                                                  build\kernel\components\finsh\shell.o
rt_completion_done                                build\kernel\components\drivers\ipc\completion.o
                                                  build\kernel\components\drivers\serial\serial.o
rt_completion_init                                build\kernel\components\drivers\ipc\completion.o
                                                  build\kernel\components\drivers\serial\serial.o
rt_completion_wait                                build\kernel\components\drivers\ipc\completion.o
                                                  build\kernel\components\drivers\serial\serial.o
rt_components_board_init                          build\kernel\src\components.o
                                                  build\board\board.o
rt_components_init                                build\kernel\src\components.o
rt_console_get_device                             build\kernel\src\kservice.o
                                                  build\kernel\components\utilities\ulog\backend\console_be.o
                                                  build\kernel\components\libc\compilers\newlib\syscalls.o
                                                  build\kernel\components\finsh\shell.o
rt_console_set_device                             build\kernel\src\kservice.o
                                                  build\board\board.o
rt_critical_level                                 build\kernel\src\scheduler.o
                                                  build\kernel\components\drivers\ipc\completion.o
                                                  build\kernel\components\drivers\ipc\waitqueue.o
                                                  build\kernel\components\drivers\ipc\dataqueue.o
                                                  build\kernel\src\ipc.o
rt_current_priority                               build\kernel\src\scheduler.o
rt_current_thread                                 build\kernel\src\scheduler.o
                                                  build\kernel\src\thread.o
rt_data_queue_deinit                              build\kernel\components\drivers\ipc\dataqueue.o
                                                  build\kernel\components\drivers\serial\serial.o
rt_data_queue_init                                build\kernel\components\drivers\ipc\dataqueue.o
                                                  build\kernel\components\drivers\serial\serial.o
rt_data_queue_len                                 build\kernel\components\drivers\ipc\dataqueue.o
rt_data_queue_peek                                build\kernel\components\drivers\ipc\dataqueue.o
                                                  build\kernel\components\drivers\serial\serial.o
rt_data_queue_pop                                 build\kernel\components\drivers\ipc\dataqueue.o
                                                  build\kernel\components\drivers\serial\serial.o
rt_data_queue_push                                build\kernel\components\drivers\ipc\dataqueue.o
                                                  build\kernel\components\drivers\serial\serial.o
rt_data_queue_reset                               build\kernel\components\drivers\ipc\dataqueue.o
rt_device_close                                   build\kernel\src\device.o
                                                  build\kernel\components\finsh\shell.o
                                                  build\kernel\src\kservice.o
rt_device_control                                 build\kernel\src\device.o
                                                  build\applications\rs232_link.o
rt_device_create                                  build\kernel\src\device.o
rt_device_destroy                                 build\kernel\src\device.o
rt_device_find                                    build\kernel\src\device.o
                                                  build\kernel\components\drivers\spi\spi_core.o
                                                  build\kernel\components\drivers\ipc\pipe.o
                                                  build\kernel\components\finsh\shell.o
                                                  build\kernel\src\kservice.o
                                                  build\packages\dac7811\dac7811.o
                                                  build\packages\ad983x\ad983x.o
                                                  build\packages\ad7190\ad7190.o
                                                  build\applications\rs232_link.o
rt_device_init                                    build\kernel\src\device.o
rt_device_open                                    build\kernel\src\device.o
                                                  build\kernel\components\finsh\shell.o
                                                  build\kernel\src\kservice.o
                                                  build\applications\rs232_link.o
rt_device_pin_register                            build\kernel\components\drivers\misc\pin.o
                                                  libraries\gd32_drivers\drv_gpio.o
rt_device_read                                    build\kernel\src\device.o
                                                  build\kernel\components\finsh\shell.o
                                                  build\applications\rs232_link.o
rt_device_register                                build\kernel\src\device.o
                                                  build\kernel\components\drivers\spi\spi_dev.o
                                                  build\kernel\components\drivers\serial\serial.o
                                                  build\kernel\components\drivers\misc\pin.o
                                                  build\kernel\components\drivers\ipc\pipe.o
rt_device_set_rx_indicate                         build\kernel\src\device.o
                                                  build\kernel\components\finsh\shell.o
                                                  build\applications\rs232_link.o
rt_device_set_tx_complete                         build\kernel\src\device.o
                                                  build\applications\rs232_link.o
rt_device_unregister                              build\kernel\src\device.o
                                                  build\kernel\components\drivers\ipc\pipe.o
rt_device_write                                   build\kernel\src\device.o
                                                  build\kernel\components\utilities\ulog\backend\console_be.o
                                                  build\kernel\components\libc\compilers\newlib\syscalls.o
                                                  build\kernel\src\kservice.o
                                                  build\applications\rs232_link.o
rt_enter_critical                                 build\kernel\src\scheduler.o
                                                  build\kernel\components\drivers\ipc\workqueue.o
                                                  build\kernel\components\drivers\ipc\dataqueue.o
                                                  build\kernel\src\object.o
rt_event_control                                  build\kernel\src\ipc.o
rt_event_create                                   build\kernel\src\ipc.o
rt_event_delete                                   build\kernel\src\ipc.o
rt_event_detach                                   build\kernel\src\ipc.o
rt_event_init                                     build\kernel\src\ipc.o
rt_event_recv                                     build\kernel\src\ipc.o
rt_event_send                                     build\kernel\src\ipc.o
rt_exit_critical                                  build\kernel\src\scheduler.o
                                                  build\kernel\components\drivers\ipc\workqueue.o
                                                  build\kernel\components\drivers\ipc\dataqueue.o
                                                  build\kernel\src\object.o
rt_free                                           build\kernel\src\kservice.o
                                                  build\kernel\components\drivers\serial\serial.o
                                                  build\kernel\components\drivers\ipc\ringblk_buf.o
                                                  build\kernel\components\drivers\ipc\ringbuffer.o
                                                  build\kernel\components\drivers\ipc\workqueue.o
                                                  build\kernel\components\drivers\ipc\dataqueue.o
                                                  build\kernel\components\drivers\ipc\pipe.o
                                                  build\kernel\components\libc\compilers\newlib\syscalls.o
                                                  build\kernel\components\libc\compilers\common\stdlib.o
                                                  build\kernel\components\finsh\shell.o
                                                  build\kernel\src\ipc.o
                                                  build\kernel\src\mempool.o
                                                  build\kernel\src\device.o
                                                  build\kernel\src\idle.o
                                                  build\kernel\src\object.o
rt_free_align                                     build\kernel\src\kservice.o
rt_free_sethook                                   build\kernel\src\kservice.o
rt_get_errno                                      build\kernel\src\kservice.o
rt_hw_backtrace                                   build\kernel\libcpu\arm\common\backtrace.o
rt_hw_board_init                                  build\board\board.o
                                                  build\kernel\src\components.o
rt_hw_console_output                              build\kernel\src\kservice.o
                                                  build\kernel\components\utilities\ulog\backend\console_be.o
rt_hw_context_switch                              build\kernel\libcpu\arm\cortex-m4\context_gcc.o
                                                  build\kernel\src\scheduler.o
rt_hw_context_switch_interrupt                    build\kernel\libcpu\arm\cortex-m4\context_gcc.o
                                                  build\kernel\src\scheduler.o
rt_hw_context_switch_to                           build\kernel\libcpu\arm\cortex-m4\context_gcc.o
                                                  build\kernel\src\scheduler.o
rt_hw_cpu_reset                                   build\kernel\libcpu\arm\cortex-m4\cpuport.o
rt_hw_cpu_shutdown                                build\kernel\libcpu\arm\cortex-m4\cpuport.o
rt_hw_exception_install                           build\kernel\libcpu\arm\cortex-m4\cpuport.o
rt_hw_hard_fault_exception                        build\kernel\libcpu\arm\cortex-m4\cpuport.o
                                                  build\kernel\libcpu\arm\cortex-m4\context_gcc.o
rt_hw_interrupt_disable                           build\kernel\libcpu\arm\cortex-m4\context_gcc.o
                                                  build\kernel\components\drivers\serial\serial.o
                                                  build\kernel\components\drivers\ipc\completion.o
                                                  build\kernel\components\drivers\ipc\ringblk_buf.o
                                                  build\kernel\components\drivers\ipc\workqueue.o
                                                  build\kernel\components\drivers\ipc\waitqueue.o
                                                  build\kernel\components\drivers\ipc\dataqueue.o
                                                  libraries\gd32_drivers\drv_usart.o
                                                  libraries\gd32_drivers\drv_gpio.o
                                                  build\kernel\components\utilities\ulog\ulog.o
                                                  build\kernel\components\libc\compilers\common\time.o
                                                  build\kernel\components\finsh\cmd.o
                                                  build\kernel\src\irq.o
                                                  build\kernel\src\clock.o
                                                  build\kernel\src\ipc.o
                                                  build\kernel\src\scheduler.o
                                                  build\kernel\src\mempool.o
                                                  build\kernel\src\components.o
                                                  build\kernel\src\idle.o
                                                  build\kernel\src\timer.o
                                                  build\kernel\src\object.o
                                                  build\kernel\src\thread.o
rt_hw_interrupt_enable                            build\kernel\libcpu\arm\cortex-m4\context_gcc.o
                                                  build\kernel\components\drivers\serial\serial.o
                                                  build\kernel\components\drivers\ipc\completion.o
                                                  build\kernel\components\drivers\ipc\ringblk_buf.o
                                                  build\kernel\components\drivers\ipc\workqueue.o
                                                  build\kernel\components\drivers\ipc\waitqueue.o
                                                  build\kernel\components\drivers\ipc\dataqueue.o
                                                  libraries\gd32_drivers\drv_usart.o
                                                  libraries\gd32_drivers\drv_gpio.o
                                                  build\kernel\components\utilities\ulog\ulog.o
                                                  build\kernel\components\libc\compilers\common\time.o
                                                  build\kernel\components\finsh\cmd.o
                                                  build\kernel\src\irq.o
                                                  build\kernel\src\clock.o
                                                  build\kernel\src\ipc.o
                                                  build\kernel\src\scheduler.o
                                                  build\kernel\src\mempool.o
                                                  build\kernel\src\idle.o
                                                  build\kernel\src\timer.o
                                                  build\kernel\src\object.o
                                                  build\kernel\src\thread.o
rt_hw_interrupt_thread_switch                     build\kernel\libcpu\arm\cortex-m4\context_gcc.o
rt_hw_pin_init                                    libraries\gd32_drivers\drv_gpio.o
rt_hw_serial_isr                                  build\kernel\components\drivers\serial\serial.o
                                                  libraries\gd32_drivers\drv_usart.o
rt_hw_serial_register                             build\kernel\components\drivers\serial\serial.o
                                                  libraries\gd32_drivers\drv_usart.o
rt_hw_show_memory                                 build\kernel\libcpu\arm\common\showmem.o
rt_hw_stack_init                                  build\kernel\libcpu\arm\cortex-m4\cpuport.o
                                                  build\kernel\src\thread.o
rt_interrupt_enter                                build\kernel\src\irq.o
                                                  libraries\gd32_drivers\drv_usart.o
                                                  libraries\gd32_drivers\drv_gpio.o
                                                  build\board\board.o
rt_interrupt_enter_sethook                        build\kernel\src\irq.o
rt_interrupt_from_thread                          build\kernel\libcpu\arm\cortex-m4\cpuport.o
                                                  build\kernel\libcpu\arm\cortex-m4\context_gcc.o
rt_interrupt_get_nest                             build\kernel\src\irq.o
                                                  build\kernel\components\drivers\ipc\completion.o
                                                  build\kernel\components\drivers\ipc\waitqueue.o
                                                  build\kernel\components\drivers\ipc\dataqueue.o
                                                  build\kernel\components\utilities\ulog\ulog.o
                                                  build\kernel\src\kservice.o
                                                  build\kernel\src\ipc.o
                                                  build\kernel\src\mempool.o
                                                  build\kernel\src\object.o
rt_interrupt_leave                                build\kernel\src\irq.o
                                                  libraries\gd32_drivers\drv_usart.o
                                                  libraries\gd32_drivers\drv_gpio.o
                                                  build\board\board.o
rt_interrupt_leave_sethook                        build\kernel\src\irq.o
rt_interrupt_nest                                 build\kernel\src\irq.o
                                                  build\kernel\src\scheduler.o
rt_interrupt_to_thread                            build\kernel\libcpu\arm\cortex-m4\cpuport.o
                                                  build\kernel\libcpu\arm\cortex-m4\context_gcc.o
rt_kprintf                                        build\kernel\src\kservice.o
                                                  build\kernel\components\drivers\ipc\completion.o
                                                  build\kernel\components\drivers\ipc\waitqueue.o
                                                  build\kernel\components\drivers\ipc\dataqueue.o
                                                  build\kernel\components\utilities\ulog\ulog.o
                                                  build\kernel\components\finsh\cmd.o
                                                  build\kernel\components\finsh\msh.o
                                                  build\kernel\components\finsh\shell.o
                                                  build\kernel\libcpu\arm\cortex-m4\cpuport.o
                                                  build\kernel\libcpu\arm\common\backtrace.o
                                                  build\kernel\libcpu\arm\common\showmem.o
                                                  build\kernel\src\ipc.o
                                                  build\kernel\src\scheduler.o
                                                  build\kernel\src\mempool.o
                                                  build\kernel\src\object.o
                                                  build\kernel\src\mem.o
                                                  build\packages\dac7811\dac7811.o
                                                  build\packages\cobs\cobs.o
                                                  build\packages\ad7190\ad7190.o
                                                  build\applications\rs232_link.o
rt_kputs                                          build\kernel\src\kservice.o
                                                  build\kernel\components\utilities\ulog\ulog.o
rt_malloc                                         build\kernel\src\kservice.o
                                                  build\kernel\components\drivers\serial\serial.o
                                                  build\kernel\components\drivers\ipc\ringblk_buf.o
                                                  build\kernel\components\drivers\ipc\ringbuffer.o
                                                  build\kernel\components\drivers\ipc\workqueue.o
                                                  build\kernel\components\drivers\ipc\dataqueue.o
                                                  build\kernel\components\drivers\ipc\pipe.o
                                                  libraries\gd32_drivers\drv_soft_spi.o
                                                  build\kernel\components\libc\compilers\newlib\syscalls.o
                                                  build\kernel\components\finsh\shell.o
                                                  build\kernel\src\ipc.o
                                                  build\kernel\src\mempool.o
                                                  build\kernel\src\device.o
                                                  build\kernel\src\object.o
                                                  build\kernel\src\thread.o
rt_malloc_align                                   build\kernel\src\kservice.o
rt_malloc_sethook                                 build\kernel\src\kservice.o
rt_mb_control                                     build\kernel\src\ipc.o
rt_mb_create                                      build\kernel\src\ipc.o
rt_mb_delete                                      build\kernel\src\ipc.o
rt_mb_detach                                      build\kernel\src\ipc.o
rt_mb_init                                        build\kernel\src\ipc.o
rt_mb_recv                                        build\kernel\src\ipc.o
rt_mb_send                                        build\kernel\src\ipc.o
rt_mb_send_wait                                   build\kernel\src\ipc.o
rt_mb_urgent                                      build\kernel\src\ipc.o
rt_memcmp                                         build\kernel\src\kservice.o
rt_memcpy                                         build\kernel\src\kservice.o
                                                  build\kernel\components\drivers\spi\spi-bit-ops.o
                                                  build\kernel\components\drivers\serial\serial.o
                                                  build\kernel\components\drivers\ipc\ringbuffer.o
                                                  build\kernel\components\finsh\cmd.o
                                                  build\kernel\components\finsh\shell.o
                                                  build\kernel\src\ipc.o
                                                  build\kernel\src\mem.o
rt_memmove                                        build\kernel\src\kservice.o
                                                  build\kernel\components\finsh\shell.o
rt_memory_info                                    build\kernel\src\kservice.o
                                                  build\kernel\components\finsh\msh.o
rt_memset                                         build\kernel\src\kservice.o
                                                  build\kernel\components\drivers\spi\spi_core.o
                                                  build\kernel\components\drivers\serial\serial.o
                                                  build\kernel\components\drivers\ipc\pipe.o
                                                  build\kernel\components\utilities\ulog\ulog.o
                                                  build\kernel\components\finsh\msh.o
                                                  build\kernel\components\finsh\shell.o
                                                  build\kernel\src\device.o
                                                  build\kernel\src\object.o
                                                  build\kernel\src\thread.o
                                                  build\kernel\src\mem.o
                                                  build\applications\rs232_link.o
rt_mp_alloc                                       build\kernel\src\mempool.o
rt_mp_alloc_sethook                               build\kernel\src\mempool.o
rt_mp_create                                      build\kernel\src\mempool.o
rt_mp_delete                                      build\kernel\src\mempool.o
rt_mp_detach                                      build\kernel\src\mempool.o
rt_mp_free                                        build\kernel\src\mempool.o
rt_mp_free_sethook                                build\kernel\src\mempool.o
rt_mp_init                                        build\kernel\src\mempool.o
rt_mq_control                                     build\kernel\src\ipc.o
rt_mq_create                                      build\kernel\src\ipc.o
rt_mq_delete                                      build\kernel\src\ipc.o
rt_mq_detach                                      build\kernel\src\ipc.o
rt_mq_init                                        build\kernel\src\ipc.o
                                                  build\applications\rs232_link.o
rt_mq_recv                                        build\kernel\src\ipc.o
                                                  build\applications\rs232_link.o
rt_mq_send                                        build\kernel\src\ipc.o
                                                  build\applications\rs232_link.o
rt_mq_send_wait                                   build\kernel\src\ipc.o
rt_mq_urgent                                      build\kernel\src\ipc.o
rt_mutex_control                                  build\kernel\src\ipc.o
rt_mutex_create                                   build\kernel\src\ipc.o
rt_mutex_delete                                   build\kernel\src\ipc.o
rt_mutex_detach                                   build\kernel\src\ipc.o
                                                  build\kernel\components\drivers\ipc\pipe.o
                                                  build\kernel\components\utilities\ulog\ulog.o
rt_mutex_init                                     build\kernel\src\ipc.o
                                                  build\kernel\components\drivers\spi\spi_core.o
                                                  build\kernel\components\drivers\ipc\pipe.o
                                                  build\kernel\components\utilities\ulog\ulog.o
                                                  build\kernel\src\kservice.o
rt_mutex_release                                  build\kernel\src\ipc.o
                                                  build\kernel\components\drivers\spi\spi_core.o
                                                  build\kernel\components\drivers\ipc\pipe.o
                                                  build\kernel\components\utilities\ulog\ulog.o
                                                  build\kernel\src\kservice.o
rt_mutex_take                                     build\kernel\src\ipc.o
                                                  build\kernel\components\drivers\spi\spi_core.o
                                                  build\kernel\components\drivers\ipc\pipe.o
                                                  build\kernel\components\utilities\ulog\ulog.o
                                                  build\kernel\src\kservice.o
rt_mutex_trytake                                  build\kernel\src\ipc.o
rt_object_allocate                                build\kernel\src\object.o
                                                  build\kernel\src\ipc.o
                                                  build\kernel\src\mempool.o
                                                  build\kernel\src\timer.o
                                                  build\kernel\src\thread.o
rt_object_attach_sethook                          build\kernel\src\object.o
rt_object_delete                                  build\kernel\src\object.o
                                                  build\kernel\src\ipc.o
                                                  build\kernel\src\mempool.o
                                                  build\kernel\src\idle.o
                                                  build\kernel\src\timer.o
                                                  build\kernel\src\thread.o
rt_object_detach                                  build\kernel\src\object.o
                                                  build\kernel\src\ipc.o
                                                  build\kernel\src\mempool.o
                                                  build\kernel\src\device.o
                                                  build\kernel\src\idle.o
                                                  build\kernel\src\timer.o
                                                  build\kernel\src\mem.o
rt_object_detach_sethook                          build\kernel\src\object.o
rt_object_find                                    build\kernel\src\object.o
                                                  build\kernel\src\device.o
                                                  build\kernel\src\thread.o
rt_object_get_information                         build\kernel\src\object.o
                                                  build\kernel\components\finsh\cmd.o
rt_object_get_length                              build\kernel\src\object.o
rt_object_get_pointers                            build\kernel\src\object.o
rt_object_get_type                                build\kernel\src\object.o
                                                  build\kernel\src\ipc.o
                                                  build\kernel\src\mempool.o
                                                  build\kernel\src\device.o
                                                  build\kernel\src\timer.o
                                                  build\kernel\src\thread.o
                                                  build\kernel\src\mem.o
rt_object_init                                    build\kernel\src\object.o
                                                  build\kernel\src\ipc.o
                                                  build\kernel\src\mempool.o
                                                  build\kernel\src\device.o
                                                  build\kernel\src\timer.o
                                                  build\kernel\src\thread.o
                                                  build\kernel\src\mem.o
rt_object_is_systemobject                         build\kernel\src\object.o
                                                  build\kernel\src\ipc.o
                                                  build\kernel\src\mempool.o
                                                  build\kernel\src\device.o
                                                  build\kernel\src\idle.o
                                                  build\kernel\src\timer.o
                                                  build\kernel\src\thread.o
                                                  build\kernel\src\mem.o
rt_object_put_hook                                build\kernel\src\object.o
                                                  build\kernel\src\ipc.o
                                                  build\kernel\src\timer.o
rt_object_put_sethook                             build\kernel\src\object.o
rt_object_take_hook                               build\kernel\src\object.o
                                                  build\kernel\src\ipc.o
                                                  build\kernel\src\timer.o
rt_object_take_sethook                            build\kernel\src\object.o
rt_object_trytake_hook                            build\kernel\src\object.o
                                                  build\kernel\src\ipc.o
rt_object_trytake_sethook                         build\kernel\src\object.o
rt_pin_attach_irq                                 build\kernel\components\drivers\misc\pin.o
                                                  build\packages\ad7190\ad7190.o
rt_pin_detach_irq                                 build\kernel\components\drivers\misc\pin.o
rt_pin_get                                        build\kernel\components\drivers\misc\pin.o
rt_pin_irq_enable                                 build\kernel\components\drivers\misc\pin.o
                                                  build\packages\ad7190\ad7190.o
rt_pin_mode                                       build\kernel\components\drivers\misc\pin.o
                                                  libraries\gd32_drivers\drv_soft_spi.o
                                                  build\packages\ad7190\ad7190.o
                                                  build\applications\main.o
rt_pin_read                                       build\kernel\components\drivers\misc\pin.o
rt_pin_write                                      build\kernel\components\drivers\misc\pin.o
                                                  build\kernel\components\drivers\spi\spi-bit-ops.o
                                                  libraries\gd32_drivers\drv_soft_spi.o
                                                  build\packages\ad983x\ad983x.o
                                                  build\packages\ad7190\ad7190.o
                                                  build\applications\main.o
rt_pipe_create                                    build\kernel\components\drivers\ipc\pipe.o
rt_pipe_delete                                    build\kernel\components\drivers\ipc\pipe.o
rt_rbb_blk_alloc                                  build\kernel\components\drivers\ipc\ringblk_buf.o
rt_rbb_blk_buf                                    build\kernel\components\drivers\ipc\ringblk_buf.o
rt_rbb_blk_free                                   build\kernel\components\drivers\ipc\ringblk_buf.o
rt_rbb_blk_get                                    build\kernel\components\drivers\ipc\ringblk_buf.o
rt_rbb_blk_put                                    build\kernel\components\drivers\ipc\ringblk_buf.o
rt_rbb_blk_queue_buf                              build\kernel\components\drivers\ipc\ringblk_buf.o
rt_rbb_blk_queue_free                             build\kernel\components\drivers\ipc\ringblk_buf.o
rt_rbb_blk_queue_get                              build\kernel\components\drivers\ipc\ringblk_buf.o
rt_rbb_blk_queue_len                              build\kernel\components\drivers\ipc\ringblk_buf.o
rt_rbb_blk_size                                   build\kernel\components\drivers\ipc\ringblk_buf.o
rt_rbb_create                                     build\kernel\components\drivers\ipc\ringblk_buf.o
rt_rbb_destroy                                    build\kernel\components\drivers\ipc\ringblk_buf.o
rt_rbb_get_buf_size                               build\kernel\components\drivers\ipc\ringblk_buf.o
rt_rbb_init                                       build\kernel\components\drivers\ipc\ringblk_buf.o
rt_rbb_next_blk_queue_len                         build\kernel\components\drivers\ipc\ringblk_buf.o
rt_realloc                                        build\kernel\src\kservice.o
                                                  build\kernel\components\libc\compilers\newlib\syscalls.o
rt_ringbuffer_create                              build\kernel\components\drivers\ipc\ringbuffer.o
                                                  build\kernel\components\drivers\ipc\pipe.o
rt_ringbuffer_data_len                            build\kernel\components\drivers\ipc\ringbuffer.o
rt_ringbuffer_destroy                             build\kernel\components\drivers\ipc\ringbuffer.o
                                                  build\kernel\components\drivers\ipc\pipe.o
rt_ringbuffer_get                                 build\kernel\components\drivers\ipc\ringbuffer.o
                                                  build\kernel\components\drivers\ipc\pipe.o
rt_ringbuffer_getchar                             build\kernel\components\drivers\ipc\ringbuffer.o
rt_ringbuffer_init                                build\kernel\components\drivers\ipc\ringbuffer.o
rt_ringbuffer_peak                                build\kernel\components\drivers\ipc\ringbuffer.o
rt_ringbuffer_put                                 build\kernel\components\drivers\ipc\ringbuffer.o
                                                  build\kernel\components\drivers\ipc\pipe.o
rt_ringbuffer_put_force                           build\kernel\components\drivers\ipc\ringbuffer.o
rt_ringbuffer_putchar                             build\kernel\components\drivers\ipc\ringbuffer.o
rt_ringbuffer_putchar_force                       build\kernel\components\drivers\ipc\ringbuffer.o
rt_ringbuffer_reset                               build\kernel\components\drivers\ipc\ringbuffer.o
rt_schedule                                       build\kernel\src\scheduler.o
                                                  build\kernel\components\drivers\ipc\completion.o
                                                  build\kernel\components\drivers\ipc\workqueue.o
                                                  build\kernel\components\drivers\ipc\waitqueue.o
                                                  build\kernel\components\drivers\ipc\dataqueue.o
                                                  build\kernel\src\clock.o
                                                  build\kernel\src\ipc.o
                                                  build\kernel\src\mempool.o
                                                  build\kernel\src\timer.o
                                                  build\kernel\src\thread.o
rt_schedule_insert_thread                         build\kernel\src\scheduler.o
                                                  build\kernel\src\thread.o
rt_schedule_remove_thread                         build\kernel\src\scheduler.o
                                                  build\kernel\src\thread.o
rt_scheduler_sethook                              build\kernel\src\scheduler.o
rt_scheduler_switch_sethook                       build\kernel\src\scheduler.o
rt_sem_control                                    build\kernel\src\ipc.o
                                                  build\applications\rs232_link.o
rt_sem_create                                     build\kernel\src\ipc.o
rt_sem_delete                                     build\kernel\src\ipc.o
rt_sem_detach                                     build\kernel\src\ipc.o
                                                  build\kernel\components\drivers\ipc\workqueue.o
rt_sem_init                                       build\kernel\src\ipc.o
                                                  build\kernel\components\drivers\ipc\workqueue.o
                                                  build\kernel\components\finsh\shell.o
                                                  build\applications\rs232_link.o
rt_sem_release                                    build\kernel\src\ipc.o
                                                  build\kernel\components\drivers\ipc\workqueue.o
                                                  build\kernel\components\finsh\shell.o
                                                  build\applications\rs232_link.o
rt_sem_take                                       build\kernel\src\ipc.o
                                                  build\kernel\components\drivers\ipc\workqueue.o
                                                  build\kernel\components\finsh\shell.o
                                                  build\applications\rs232_link.o
rt_sem_trytake                                    build\kernel\src\ipc.o
                                                  build\kernel\components\drivers\ipc\workqueue.o
rt_set_errno                                      build\kernel\src\kservice.o
                                                  build\kernel\components\drivers\spi\spi_core.o
                                                  build\kernel\components\drivers\serial\serial.o
                                                  build\kernel\components\drivers\ipc\pipe.o
                                                  build\kernel\components\libc\compilers\common\time.o
                                                  build\kernel\src\mempool.o
                                                  build\kernel\src\device.o
rt_show_version                                   build\kernel\src\kservice.o
                                                  build\kernel\components\finsh\cmd.o
                                                  build\kernel\src\components.o
rt_smem_alloc                                     build\kernel\src\mem.o
                                                  build\kernel\src\kservice.o
rt_smem_detach                                    build\kernel\src\mem.o
rt_smem_free                                      build\kernel\src\mem.o
                                                  build\kernel\src\kservice.o
rt_smem_init                                      build\kernel\src\mem.o
                                                  build\kernel\src\kservice.o
rt_smem_realloc                                   build\kernel\src\mem.o
                                                  build\kernel\src\kservice.o
rt_snprintf                                       build\kernel\src\kservice.o
                                                  build\kernel\components\utilities\ulog\ulog.o
rt_soft_spi_init                                  libraries\gd32_drivers\drv_soft_spi.o
rt_spi_bit_add_bus                                build\kernel\components\drivers\spi\spi-bit-ops.o
                                                  libraries\gd32_drivers\drv_soft_spi.o
rt_spi_bus_attach_device                          build\kernel\components\drivers\spi\spi_core.o
                                                  libraries\gd32_drivers\drv_soft_spi.o
rt_spi_bus_device_init                            build\kernel\components\drivers\spi\spi_dev.o
                                                  build\kernel\components\drivers\spi\spi_core.o
rt_spi_bus_register                               build\kernel\components\drivers\spi\spi_core.o
                                                  build\kernel\components\drivers\spi\spi-bit-ops.o
rt_spi_configure                                  build\kernel\components\drivers\spi\spi_core.o
                                                  build\packages\dac7811\dac7811.o
                                                  build\packages\ad983x\ad983x.o
                                                  build\packages\ad7190\ad7190.o
rt_spi_release                                    build\kernel\components\drivers\spi\spi_core.o
rt_spi_release_bus                                build\kernel\components\drivers\spi\spi_core.o
rt_spi_send_then_recv                             build\kernel\components\drivers\spi\spi_core.o
                                                  build\packages\ad7190\ad7190.o
rt_spi_send_then_send                             build\kernel\components\drivers\spi\spi_core.o
rt_spi_take                                       build\kernel\components\drivers\spi\spi_core.o
rt_spi_take_bus                                   build\kernel\components\drivers\spi\spi_core.o
rt_spi_transfer                                   build\kernel\components\drivers\spi\spi_core.o
                                                  build\kernel\components\drivers\spi\spi_dev.o
                                                  build\packages\dac7811\dac7811.o
                                                  build\packages\ad983x\ad983x.o
                                                  build\packages\ad7190\ad7190.o
rt_spi_transfer_message                           build\kernel\components\drivers\spi\spi_core.o
                                                  build\packages\ad7190\ad7190.o
rt_spidev_device_init                             build\kernel\components\drivers\spi\spi_dev.o
                                                  build\kernel\components\drivers\spi\spi_core.o
rt_sprintf                                        build\kernel\src\kservice.o
                                                  build\kernel\src\idle.o
rt_strcasecmp                                     build\kernel\src\kservice.o
rt_strcmp                                         build\kernel\src\kservice.o
rt_strcpy                                         build\kernel\src\kservice.o
rt_strdup                                         build\kernel\src\kservice.o
                                                  build\kernel\components\libc\compilers\common\stdlib.o
rt_strlen                                         build\kernel\src\kservice.o
                                                  build\kernel\components\utilities\ulog\ulog.o
                                                  build\kernel\components\libc\compilers\common\time.o
                                                  build\kernel\components\libc\compilers\common\stdlib.o
rt_strncmp                                        build\kernel\src\kservice.o
                                                  build\kernel\components\utilities\ulog\ulog.o
                                                  build\kernel\src\object.o
rt_strncpy                                        build\kernel\src\kservice.o
                                                  build\kernel\components\utilities\ulog\ulog.o
                                                  build\kernel\components\finsh\msh.o
                                                  build\kernel\src\object.o
rt_strnlen                                        build\kernel\src\kservice.o
rt_strstr                                         build\kernel\src\kservice.o
rt_sw_spi_device_attach                           libraries\gd32_drivers\drv_soft_spi.o
                                                  build\packages\dac7811\dac7811.o
                                                  build\packages\ad983x\ad983x.o
                                                  build\packages\ad7190\ad7190.o
rt_system_heap_init                               build\kernel\src\kservice.o
                                                  build\board\board.o
rt_system_scheduler_init                          build\kernel\src\scheduler.o
                                                  build\kernel\src\components.o
rt_system_scheduler_start                         build\kernel\src\scheduler.o
                                                  build\kernel\src\components.o
rt_system_timer_init                              build\kernel\src\timer.o
                                                  build\kernel\src\components.o
rt_system_timer_thread_init                       build\kernel\src\timer.o
                                                  build\kernel\src\components.o
rt_thread_control                                 build\kernel\src\thread.o
                                                  build\kernel\components\libc\compilers\common\stdlib.o
                                                  build\kernel\src\ipc.o
rt_thread_create                                  build\kernel\src\thread.o
                                                  build\kernel\components\drivers\ipc\workqueue.o
                                                  build\kernel\components\finsh\shell.o
                                                  build\kernel\src\components.o
                                                  build\applications\rs232_link.o
rt_thread_defunct_dequeue                         build\kernel\src\idle.o
rt_thread_defunct_enqueue                         build\kernel\src\idle.o
                                                  build\kernel\src\thread.o
rt_thread_delay                                   build\kernel\src\thread.o
rt_thread_delay_until                             build\kernel\src\thread.o
rt_thread_delete                                  build\kernel\src\thread.o
                                                  build\kernel\components\drivers\ipc\workqueue.o
rt_thread_detach                                  build\kernel\src\thread.o
rt_thread_find                                    build\kernel\src\thread.o
rt_thread_idle_delhook                            build\kernel\src\idle.o
rt_thread_idle_gethandler                         build\kernel\src\idle.o
rt_thread_idle_init                               build\kernel\src\idle.o
                                                  build\kernel\src\components.o
rt_thread_idle_sethook                            build\kernel\src\idle.o
rt_thread_init                                    build\kernel\src\thread.o
                                                  build\kernel\src\idle.o
rt_thread_inited_sethook                          build\kernel\src\thread.o
rt_thread_mdelay                                  build\kernel\src\thread.o
                                                  build\packages\ad7190\ad7190.o
                                                  build\applications\main.o
rt_thread_priority_table                          build\kernel\src\scheduler.o
rt_thread_ready_priority_group                    build\kernel\src\scheduler.o
rt_thread_resume                                  build\kernel\src\thread.o
                                                  build\kernel\components\drivers\ipc\completion.o
                                                  build\kernel\components\drivers\ipc\workqueue.o
                                                  build\kernel\components\drivers\ipc\waitqueue.o
                                                  build\kernel\components\drivers\ipc\dataqueue.o
                                                  build\kernel\src\ipc.o
                                                  build\kernel\src\mempool.o
rt_thread_resume_sethook                          build\kernel\src\thread.o
rt_thread_self                                    build\kernel\src\thread.o
                                                  build\kernel\components\drivers\ipc\completion.o
                                                  build\kernel\components\drivers\ipc\workqueue.o
                                                  build\kernel\components\drivers\ipc\waitqueue.o
                                                  build\kernel\components\drivers\ipc\dataqueue.o
                                                  build\kernel\components\utilities\ulog\ulog.o
                                                  build\kernel\components\libc\compilers\common\stdlib.o
                                                  build\kernel\libcpu\arm\cortex-m4\cpuport.o
                                                  build\kernel\src\kservice.o
                                                  build\kernel\src\clock.o
                                                  build\kernel\src\ipc.o
                                                  build\kernel\src\mempool.o
rt_thread_sleep                                   build\kernel\src\thread.o
rt_thread_startup                                 build\kernel\src\thread.o
                                                  build\kernel\components\drivers\ipc\workqueue.o
                                                  build\kernel\components\finsh\shell.o
                                                  build\kernel\src\components.o
                                                  build\kernel\src\idle.o
                                                  build\applications\rs232_link.o
rt_thread_suspend                                 build\kernel\src\thread.o
                                                  build\kernel\components\drivers\ipc\completion.o
                                                  build\kernel\components\drivers\ipc\workqueue.o
                                                  build\kernel\components\drivers\ipc\waitqueue.o
                                                  build\kernel\components\drivers\ipc\dataqueue.o
                                                  build\kernel\src\ipc.o
                                                  build\kernel\src\mempool.o
rt_thread_suspend_sethook                         build\kernel\src\thread.o
rt_thread_switch_interrupt_flag                   build\kernel\libcpu\arm\cortex-m4\cpuport.o
                                                  build\kernel\libcpu\arm\cortex-m4\context_gcc.o
rt_thread_yield                                   build\kernel\src\thread.o
rt_tick_from_millisecond                          build\kernel\src\clock.o
                                                  build\kernel\components\drivers\ipc\waitqueue.o
                                                  build\kernel\src\thread.o
rt_tick_get                                       build\kernel\src\clock.o
                                                  build\kernel\components\utilities\ulog\ulog.o
                                                  build\kernel\components\libc\compilers\common\time.o
                                                  build\kernel\components\finsh\cmd.o
                                                  build\kernel\src\ipc.o
                                                  build\kernel\src\mempool.o
                                                  build\kernel\src\timer.o
                                                  build\kernel\src\thread.o
rt_tick_get_millisecond                           build\kernel\src\clock.o
rt_tick_increase                                  build\kernel\src\clock.o
                                                  build\board\board.o
rt_tick_set                                       build\kernel\src\clock.o
rt_tick_sethook                                   build\kernel\src\clock.o
rt_timer_check                                    build\kernel\src\timer.o
                                                  build\kernel\src\clock.o
rt_timer_control                                  build\kernel\src\timer.o
                                                  build\kernel\components\drivers\ipc\completion.o
                                                  build\kernel\components\drivers\ipc\workqueue.o
                                                  build\kernel\components\drivers\ipc\waitqueue.o
                                                  build\kernel\components\drivers\ipc\dataqueue.o
                                                  build\kernel\src\ipc.o
                                                  build\kernel\src\mempool.o
                                                  build\kernel\src\thread.o
rt_timer_create                                   build\kernel\src\timer.o
rt_timer_delete                                   build\kernel\src\timer.o
rt_timer_detach                                   build\kernel\src\timer.o
                                                  build\kernel\components\drivers\ipc\workqueue.o
                                                  build\kernel\src\thread.o
rt_timer_enter_sethook                            build\kernel\src\timer.o
rt_timer_exit_sethook                             build\kernel\src\timer.o
rt_timer_init                                     build\kernel\src\timer.o
                                                  build\kernel\components\drivers\ipc\workqueue.o
                                                  build\kernel\src\thread.o
rt_timer_next_timeout_tick                        build\kernel\src\timer.o
rt_timer_start                                    build\kernel\src\timer.o
                                                  build\kernel\components\drivers\ipc\completion.o
                                                  build\kernel\components\drivers\ipc\workqueue.o
                                                  build\kernel\components\drivers\ipc\waitqueue.o
                                                  build\kernel\components\drivers\ipc\dataqueue.o
                                                  build\kernel\src\ipc.o
                                                  build\kernel\src\mempool.o
                                                  build\kernel\src\thread.o
rt_timer_stop                                     build\kernel\src\timer.o
                                                  build\kernel\components\drivers\ipc\workqueue.o
                                                  build\kernel\src\thread.o
rt_vsnprintf                                      build\kernel\src\kservice.o
                                                  build\kernel\components\utilities\ulog\ulog.o
rt_vsprintf                                       build\kernel\src\kservice.o
rt_work_cancel                                    build\kernel\components\drivers\ipc\workqueue.o
rt_work_init                                      build\kernel\components\drivers\ipc\workqueue.o
rt_work_submit                                    build\kernel\components\drivers\ipc\workqueue.o
rt_work_urgent                                    build\kernel\components\drivers\ipc\workqueue.o
rt_workqueue_cancel_all_work                      build\kernel\components\drivers\ipc\workqueue.o
rt_workqueue_cancel_work                          build\kernel\components\drivers\ipc\workqueue.o
rt_workqueue_cancel_work_sync                     build\kernel\components\drivers\ipc\workqueue.o
rt_workqueue_create                               build\kernel\components\drivers\ipc\workqueue.o
rt_workqueue_destroy                              build\kernel\components\drivers\ipc\workqueue.o
rt_workqueue_dowork                               build\kernel\components\drivers\ipc\workqueue.o
rt_workqueue_submit_work                          build\kernel\components\drivers\ipc\workqueue.o
rt_workqueue_urgent_work                          build\kernel\components\drivers\ipc\workqueue.o
rt_wqueue_add                                     build\kernel\components\drivers\ipc\waitqueue.o
rt_wqueue_remove                                  build\kernel\components\drivers\ipc\waitqueue.o
rt_wqueue_wait                                    build\kernel\components\drivers\ipc\waitqueue.o
rt_wqueue_wakeup                                  build\kernel\components\drivers\ipc\waitqueue.o
rtthread_startup                                  build\kernel\src\components.o
settimeofday                                      build\kernel\components\libc\compilers\common\time.o
shell                                             build\kernel\components\finsh\shell.o
software_init_hook                                d:/keil_v5/os/rtthread/env-windows-v1.3.5/tools/gnu_gcc/arm_gcc/mingw/bin/../lib/gcc/arm-none-eabi/10.3.1/../../../../arm-none-eabi/lib/thumb/v7e-m+fp/hard/crt0.o
spi_bidirectional_transfer_config                 libraries\GD32F30x_Firmware_Library\GD32F30x_standard_peripheral\Source\gd32f30x_spi.o
spi_bit_configure                                 build\kernel\components\drivers\spi\spi-bit-ops.o
spi_bit_xfer                                      build\kernel\components\drivers\spi\spi-bit-ops.o
spi_crc_error_clear                               libraries\GD32F30x_Firmware_Library\GD32F30x_standard_peripheral\Source\gd32f30x_spi.o
spi_crc_get                                       libraries\GD32F30x_Firmware_Library\GD32F30x_standard_peripheral\Source\gd32f30x_spi.o
spi_crc_next                                      libraries\GD32F30x_Firmware_Library\GD32F30x_standard_peripheral\Source\gd32f30x_spi.o
spi_crc_off                                       libraries\GD32F30x_Firmware_Library\GD32F30x_standard_peripheral\Source\gd32f30x_spi.o
spi_crc_on                                        libraries\GD32F30x_Firmware_Library\GD32F30x_standard_peripheral\Source\gd32f30x_spi.o
spi_crc_polynomial_get                            libraries\GD32F30x_Firmware_Library\GD32F30x_standard_peripheral\Source\gd32f30x_spi.o
spi_crc_polynomial_set                            libraries\GD32F30x_Firmware_Library\GD32F30x_standard_peripheral\Source\gd32f30x_spi.o
spi_disable                                       libraries\GD32F30x_Firmware_Library\GD32F30x_standard_peripheral\Source\gd32f30x_spi.o
spi_dma_disable                                   libraries\GD32F30x_Firmware_Library\GD32F30x_standard_peripheral\Source\gd32f30x_spi.o
spi_dma_enable                                    libraries\GD32F30x_Firmware_Library\GD32F30x_standard_peripheral\Source\gd32f30x_spi.o
spi_enable                                        libraries\GD32F30x_Firmware_Library\GD32F30x_standard_peripheral\Source\gd32f30x_spi.o
spi_i2s_data_frame_format_config                  libraries\GD32F30x_Firmware_Library\GD32F30x_standard_peripheral\Source\gd32f30x_spi.o
spi_i2s_data_receive                              libraries\GD32F30x_Firmware_Library\GD32F30x_standard_peripheral\Source\gd32f30x_spi.o
spi_i2s_data_transmit                             libraries\GD32F30x_Firmware_Library\GD32F30x_standard_peripheral\Source\gd32f30x_spi.o
spi_i2s_deinit                                    libraries\GD32F30x_Firmware_Library\GD32F30x_standard_peripheral\Source\gd32f30x_spi.o
spi_i2s_flag_get                                  libraries\GD32F30x_Firmware_Library\GD32F30x_standard_peripheral\Source\gd32f30x_spi.o
spi_i2s_interrupt_disable                         libraries\GD32F30x_Firmware_Library\GD32F30x_standard_peripheral\Source\gd32f30x_spi.o
spi_i2s_interrupt_enable                          libraries\GD32F30x_Firmware_Library\GD32F30x_standard_peripheral\Source\gd32f30x_spi.o
spi_i2s_interrupt_flag_get                        libraries\GD32F30x_Firmware_Library\GD32F30x_standard_peripheral\Source\gd32f30x_spi.o
spi_init                                          libraries\GD32F30x_Firmware_Library\GD32F30x_standard_peripheral\Source\gd32f30x_spi.o
spi_nss_internal_high                             libraries\GD32F30x_Firmware_Library\GD32F30x_standard_peripheral\Source\gd32f30x_spi.o
spi_nss_internal_low                              libraries\GD32F30x_Firmware_Library\GD32F30x_standard_peripheral\Source\gd32f30x_spi.o
spi_nss_output_disable                            libraries\GD32F30x_Firmware_Library\GD32F30x_standard_peripheral\Source\gd32f30x_spi.o
spi_nss_output_enable                             libraries\GD32F30x_Firmware_Library\GD32F30x_standard_peripheral\Source\gd32f30x_spi.o
spi_nssp_mode_disable                             libraries\GD32F30x_Firmware_Library\GD32F30x_standard_peripheral\Source\gd32f30x_spi.o
spi_nssp_mode_enable                              libraries\GD32F30x_Firmware_Library\GD32F30x_standard_peripheral\Source\gd32f30x_spi.o
spi_struct_para_init                              libraries\GD32F30x_Firmware_Library\GD32F30x_standard_peripheral\Source\gd32f30x_spi.o
spi_ti_mode_disable                               libraries\GD32F30x_Firmware_Library\GD32F30x_standard_peripheral\Source\gd32f30x_spi.o
spi_ti_mode_enable                                libraries\GD32F30x_Firmware_Library\GD32F30x_standard_peripheral\Source\gd32f30x_spi.o
stime                                             build\kernel\components\libc\compilers\common\time.o
strcpy                                            d:/keil_v5/os/rtthread/env-windows-v1.3.5/tools/gnu_gcc/arm_gcc/mingw/bin/../lib/gcc/arm-none-eabi/10.3.1/../../../../arm-none-eabi/lib/thumb/v7e-m+fp/hard\libc.a(lib_a-strcpy.o)
                                                  build\kernel\components\finsh\shell.o
strlen                                            d:/keil_v5/os/rtthread/env-windows-v1.3.5/tools/gnu_gcc/arm_gcc/mingw/bin/../lib/gcc/arm-none-eabi/10.3.1/../../../../arm-none-eabi/lib/thumb/v7e-m+fp/hard\libc.a(lib_a-strlen.o)
                                                  build\kernel\components\finsh\msh.o
                                                  build\kernel\components\finsh\shell.o
strncmp                                           d:/keil_v5/os/rtthread/env-windows-v1.3.5/tools/gnu_gcc/arm_gcc/mingw/bin/../lib/gcc/arm-none-eabi/10.3.1/../../../../arm-none-eabi/lib/thumb/v7e-m+fp/hard\libc.a(lib_a-strncmp.o)
                                                  build\kernel\components\finsh\msh.o
strncpy                                           d:/keil_v5/os/rtthread/env-windows-v1.3.5/tools/gnu_gcc/arm_gcc/mingw/bin/../lib/gcc/arm-none-eabi/10.3.1/../../../../arm-none-eabi/lib/thumb/v7e-m+fp/hard\libc.a(lib_a-strncpy.o)
                                                  build\kernel\components\finsh\shell.o
strtol                                            d:/keil_v5/os/rtthread/env-windows-v1.3.5/tools/gnu_gcc/arm_gcc/mingw/bin/../lib/gcc/arm-none-eabi/10.3.1/../../../../arm-none-eabi/lib/thumb/v7e-m+fp/hard\libc.a(lib_a-strtol.o)
                                                  d:/keil_v5/os/rtthread/env-windows-v1.3.5/tools/gnu_gcc/arm_gcc/mingw/bin/../lib/gcc/arm-none-eabi/10.3.1/../../../../arm-none-eabi/lib/thumb/v7e-m+fp/hard\libc.a(lib_a-atoi.o)
strtol_l                                          d:/keil_v5/os/rtthread/env-windows-v1.3.5/tools/gnu_gcc/arm_gcc/mingw/bin/../lib/gcc/arm-none-eabi/10.3.1/../../../../arm-none-eabi/lib/thumb/v7e-m+fp/hard\libc.a(lib_a-strtol.o)
system                                            build\kernel\components\libc\compilers\common\stdlib.o
system_lowpower_reset                             libraries\GD32F30x_Firmware_Library\GD32F30x_standard_peripheral\Source\gd32f30x_misc.o
system_lowpower_set                               libraries\GD32F30x_Firmware_Library\GD32F30x_standard_peripheral\Source\gd32f30x_misc.o
systick_clksource_set                             libraries\GD32F30x_Firmware_Library\GD32F30x_standard_peripheral\Source\gd32f30x_misc.o
time                                              build\kernel\components\libc\compilers\common\time.o
timegm                                            build\kernel\components\libc\compilers\common\time.o
tz_get                                            build\kernel\components\libc\compilers\common\time.o
tz_is_dst                                         build\kernel\components\libc\compilers\common\time.o
tz_set                                            build\kernel\components\libc\compilers\common\time.o
ulog_backend_find                                 build\kernel\components\utilities\ulog\ulog.o
ulog_backend_register                             build\kernel\components\utilities\ulog\ulog.o
                                                  build\kernel\components\utilities\ulog\backend\console_be.o
ulog_backend_set_filter                           build\kernel\components\utilities\ulog\ulog.o
ulog_backend_unregister                           build\kernel\components\utilities\ulog\ulog.o
ulog_console_backend_init                         build\kernel\components\utilities\ulog\backend\console_be.o
ulog_console_backend_output                       build\kernel\components\utilities\ulog\backend\console_be.o
                                                  build\kernel\components\utilities\ulog\ulog.o
ulog_deinit                                       build\kernel\components\utilities\ulog\ulog.o
ulog_flush                                        build\kernel\components\utilities\ulog\ulog.o
ulog_formater                                     build\kernel\components\utilities\ulog\ulog.o
ulog_hexdump                                      build\kernel\components\utilities\ulog\ulog.o
ulog_init                                         build\kernel\components\utilities\ulog\ulog.o
                                                  build\kernel\components\utilities\ulog\backend\console_be.o
ulog_output                                       build\kernel\components\utilities\ulog\ulog.o
                                                  libraries\gd32_drivers\drv_soft_spi.o
                                                  build\kernel\components\libc\compilers\newlib\syscalls.o
                                                  build\kernel\components\libc\compilers\common\time.o
                                                  build\kernel\components\libc\compilers\common\stdlib.o
ulog_output_lock_enabled                          build\kernel\components\utilities\ulog\ulog.o
ulog_output_to_all_backend                        build\kernel\components\utilities\ulog\ulog.o
ulog_raw                                          build\kernel\components\utilities\ulog\ulog.o
ulog_strcpy                                       build\kernel\components\utilities\ulog\ulog.o
ulog_ultoa                                        build\kernel\components\utilities\ulog\ulog.o
ulog_voutput                                      build\kernel\components\utilities\ulog\ulog.o
umask                                             build\kernel\components\libc\compilers\newlib\syscalls.o
usart_address_config                              libraries\GD32F30x_Firmware_Library\GD32F30x_standard_peripheral\Source\gd32f30x_usart.o
usart_baudrate_set                                libraries\GD32F30x_Firmware_Library\GD32F30x_standard_peripheral\Source\gd32f30x_usart.o
                                                  libraries\gd32_drivers\drv_usart.o
usart_block_length_config                         libraries\GD32F30x_Firmware_Library\GD32F30x_standard_peripheral\Source\gd32f30x_usart.o
usart_data_first_config                           libraries\GD32F30x_Firmware_Library\GD32F30x_standard_peripheral\Source\gd32f30x_usart.o
usart_data_receive                                libraries\GD32F30x_Firmware_Library\GD32F30x_standard_peripheral\Source\gd32f30x_usart.o
                                                  libraries\gd32_drivers\drv_usart.o
usart_data_transmit                               libraries\GD32F30x_Firmware_Library\GD32F30x_standard_peripheral\Source\gd32f30x_usart.o
                                                  libraries\gd32_drivers\drv_usart.o
usart_deinit                                      libraries\GD32F30x_Firmware_Library\GD32F30x_standard_peripheral\Source\gd32f30x_usart.o
usart_disable                                     libraries\GD32F30x_Firmware_Library\GD32F30x_standard_peripheral\Source\gd32f30x_usart.o
usart_dma_receive_config                          libraries\GD32F30x_Firmware_Library\GD32F30x_standard_peripheral\Source\gd32f30x_usart.o
                                                  libraries\gd32_drivers\drv_usart.o
usart_dma_transmit_config                         libraries\GD32F30x_Firmware_Library\GD32F30x_standard_peripheral\Source\gd32f30x_usart.o
                                                  libraries\gd32_drivers\drv_usart.o
usart_enable                                      libraries\GD32F30x_Firmware_Library\GD32F30x_standard_peripheral\Source\gd32f30x_usart.o
                                                  libraries\gd32_drivers\drv_usart.o
usart_flag_clear                                  libraries\GD32F30x_Firmware_Library\GD32F30x_standard_peripheral\Source\gd32f30x_usart.o
                                                  libraries\gd32_drivers\drv_usart.o
usart_flag_get                                    libraries\GD32F30x_Firmware_Library\GD32F30x_standard_peripheral\Source\gd32f30x_usart.o
                                                  libraries\gd32_drivers\drv_usart.o
usart_guard_time_config                           libraries\GD32F30x_Firmware_Library\GD32F30x_standard_peripheral\Source\gd32f30x_usart.o
usart_halfduplex_disable                          libraries\GD32F30x_Firmware_Library\GD32F30x_standard_peripheral\Source\gd32f30x_usart.o
usart_halfduplex_enable                           libraries\GD32F30x_Firmware_Library\GD32F30x_standard_peripheral\Source\gd32f30x_usart.o
usart_hardware_flow_cts_config                    libraries\GD32F30x_Firmware_Library\GD32F30x_standard_peripheral\Source\gd32f30x_usart.o
usart_hardware_flow_rts_config                    libraries\GD32F30x_Firmware_Library\GD32F30x_standard_peripheral\Source\gd32f30x_usart.o
usart_interrupt_disable                           libraries\GD32F30x_Firmware_Library\GD32F30x_standard_peripheral\Source\gd32f30x_usart.o
                                                  libraries\gd32_drivers\drv_usart.o
usart_interrupt_enable                            libraries\GD32F30x_Firmware_Library\GD32F30x_standard_peripheral\Source\gd32f30x_usart.o
                                                  libraries\gd32_drivers\drv_usart.o
usart_interrupt_flag_clear                        libraries\GD32F30x_Firmware_Library\GD32F30x_standard_peripheral\Source\gd32f30x_usart.o
usart_interrupt_flag_get                          libraries\GD32F30x_Firmware_Library\GD32F30x_standard_peripheral\Source\gd32f30x_usart.o
                                                  libraries\gd32_drivers\drv_usart.o
usart_invert_config                               libraries\GD32F30x_Firmware_Library\GD32F30x_standard_peripheral\Source\gd32f30x_usart.o
usart_irda_lowpower_config                        libraries\GD32F30x_Firmware_Library\GD32F30x_standard_peripheral\Source\gd32f30x_usart.o
usart_irda_mode_disable                           libraries\GD32F30x_Firmware_Library\GD32F30x_standard_peripheral\Source\gd32f30x_usart.o
usart_irda_mode_enable                            libraries\GD32F30x_Firmware_Library\GD32F30x_standard_peripheral\Source\gd32f30x_usart.o
usart_lin_break_detection_length_config           libraries\GD32F30x_Firmware_Library\GD32F30x_standard_peripheral\Source\gd32f30x_usart.o
usart_lin_mode_disable                            libraries\GD32F30x_Firmware_Library\GD32F30x_standard_peripheral\Source\gd32f30x_usart.o
usart_lin_mode_enable                             libraries\GD32F30x_Firmware_Library\GD32F30x_standard_peripheral\Source\gd32f30x_usart.o
usart_mute_mode_disable                           libraries\GD32F30x_Firmware_Library\GD32F30x_standard_peripheral\Source\gd32f30x_usart.o
usart_mute_mode_enable                            libraries\GD32F30x_Firmware_Library\GD32F30x_standard_peripheral\Source\gd32f30x_usart.o
usart_mute_mode_wakeup_config                     libraries\GD32F30x_Firmware_Library\GD32F30x_standard_peripheral\Source\gd32f30x_usart.o
usart_parity_config                               libraries\GD32F30x_Firmware_Library\GD32F30x_standard_peripheral\Source\gd32f30x_usart.o
                                                  libraries\gd32_drivers\drv_usart.o
usart_prescaler_config                            libraries\GD32F30x_Firmware_Library\GD32F30x_standard_peripheral\Source\gd32f30x_usart.o
usart_receive_config                              libraries\GD32F30x_Firmware_Library\GD32F30x_standard_peripheral\Source\gd32f30x_usart.o
                                                  libraries\gd32_drivers\drv_usart.o
usart_receiver_timeout_disable                    libraries\GD32F30x_Firmware_Library\GD32F30x_standard_peripheral\Source\gd32f30x_usart.o
usart_receiver_timeout_enable                     libraries\GD32F30x_Firmware_Library\GD32F30x_standard_peripheral\Source\gd32f30x_usart.o
usart_receiver_timeout_threshold_config           libraries\GD32F30x_Firmware_Library\GD32F30x_standard_peripheral\Source\gd32f30x_usart.o
usart_send_break                                  libraries\GD32F30x_Firmware_Library\GD32F30x_standard_peripheral\Source\gd32f30x_usart.o
usart_smartcard_autoretry_config                  libraries\GD32F30x_Firmware_Library\GD32F30x_standard_peripheral\Source\gd32f30x_usart.o
usart_smartcard_mode_disable                      libraries\GD32F30x_Firmware_Library\GD32F30x_standard_peripheral\Source\gd32f30x_usart.o
usart_smartcard_mode_enable                       libraries\GD32F30x_Firmware_Library\GD32F30x_standard_peripheral\Source\gd32f30x_usart.o
usart_smartcard_mode_nack_disable                 libraries\GD32F30x_Firmware_Library\GD32F30x_standard_peripheral\Source\gd32f30x_usart.o
usart_smartcard_mode_nack_enable                  libraries\GD32F30x_Firmware_Library\GD32F30x_standard_peripheral\Source\gd32f30x_usart.o
usart_stop_bit_set                                libraries\GD32F30x_Firmware_Library\GD32F30x_standard_peripheral\Source\gd32f30x_usart.o
                                                  libraries\gd32_drivers\drv_usart.o
usart_synchronous_clock_config                    libraries\GD32F30x_Firmware_Library\GD32F30x_standard_peripheral\Source\gd32f30x_usart.o
usart_synchronous_clock_disable                   libraries\GD32F30x_Firmware_Library\GD32F30x_standard_peripheral\Source\gd32f30x_usart.o
usart_synchronous_clock_enable                    libraries\GD32F30x_Firmware_Library\GD32F30x_standard_peripheral\Source\gd32f30x_usart.o
usart_transmit_config                             libraries\GD32F30x_Firmware_Library\GD32F30x_standard_peripheral\Source\gd32f30x_usart.o
                                                  libraries\gd32_drivers\drv_usart.o
usart_word_length_set                             libraries\GD32F30x_Firmware_Library\GD32F30x_standard_peripheral\Source\gd32f30x_usart.o
                                                  libraries\gd32_drivers\drv_usart.o
version                                           build\kernel\components\finsh\cmd.o
